---
triple:          'arm64-apple-darwin'
binary-path:     runtasks
relocations:
  - { offsetInCU: 0x26, offset: 0x26, size: 0x8, addend: 0x0, symName: __Z8yourTestP11ITaskSystembii, symObjAddr: 0x0, symBinAddr: 0x100004234, symSize: 0x188 }
  - { offsetInCU: 0x46, offset: 0x46, size: 0x8, addend: 0x0, symName: _main, symObjAddr: 0x61B0, symBinAddr: 0x10000A3E4, symSize: 0x11D8 }
  - { offsetInCU: 0x6B, offset: 0x6B, size: 0x8, addend: 0x0, symName: __ZZ4mainE12long_options, symObjAddr: 0x9410, symBinAddr: 0x100014000, symSize: 0x0 }
  - { offsetInCU: 0x19F50, offset: 0x19F50, size: 0x8, addend: 0x0, symName: __ZNSt3__127__tree_balance_after_insertB8ue170006IPNS_16__tree_node_baseIPvEEEEvT_S5_, symObjAddr: 0x823C, symBinAddr: 0x10000C470, symSize: 0x1B4 }
  - { offsetInCU: 0x1A7A1, offset: 0x1A7A1, size: 0x8, addend: 0x0, symName: __ZNSt3__120__throw_length_errorB8ue170006EPKc, symObjAddr: 0x7CE8, symBinAddr: 0x10000BF1C, symSize: 0x50 }
  - { offsetInCU: 0x1AF9C, offset: 0x1AF9C, size: 0x8, addend: 0x0, symName: __ZSt28__throw_bad_array_new_lengthB8ue170006v, symObjAddr: 0x7D5C, symBinAddr: 0x10000BF90, symSize: 0x28 }
  - { offsetInCU: 0x1ECB7, offset: 0x1ECB7, size: 0x8, addend: 0x0, symName: __Z8yourTestP11ITaskSystembii, symObjAddr: 0x0, symBinAddr: 0x100004234, symSize: 0x188 }
  - { offsetInCU: 0x1F28C, offset: 0x1F28C, size: 0x8, addend: 0x0, symName: __Z10simpleTestP11ITaskSystemb, symObjAddr: 0x188, symBinAddr: 0x1000043BC, symSize: 0x38C }
  - { offsetInCU: 0x1FE43, offset: 0x1FE43, size: 0x8, addend: 0x0, symName: __ZN18SimpleMultiplyTaskD1Ev, symObjAddr: 0x514, symBinAddr: 0x100004748, symSize: 0x4 }
  - { offsetInCU: 0x1FE65, offset: 0x1FE65, size: 0x8, addend: 0x0, symName: __ZN18SimpleMultiplyTaskD1Ev, symObjAddr: 0x514, symBinAddr: 0x100004748, symSize: 0x4 }
  - { offsetInCU: 0x1FE7F, offset: 0x1FE7F, size: 0x8, addend: 0x0, symName: __Z14simpleTestSyncP11ITaskSystem, symObjAddr: 0x518, symBinAddr: 0x10000474C, symSize: 0x8 }
  - { offsetInCU: 0x1FEC8, offset: 0x1FEC8, size: 0x8, addend: 0x0, symName: __Z15simpleTestAsyncP11ITaskSystem, symObjAddr: 0x520, symBinAddr: 0x100004754, symSize: 0x8 }
  - { offsetInCU: 0x20168, offset: 0x20168, size: 0x8, addend: 0x0, symName: __Z12pingPongTestP11ITaskSystembbii, symObjAddr: 0x528, symBinAddr: 0x10000475C, symSize: 0x784 }
  - { offsetInCU: 0x20C3D, offset: 0x20C3D, size: 0x8, addend: 0x0, symName: __Z19superSuperLightTestP11ITaskSystem, symObjAddr: 0xCAC, symBinAddr: 0x100004EE0, symSize: 0x14 }
  - { offsetInCU: 0x20CB6, offset: 0x20CB6, size: 0x8, addend: 0x0, symName: __Z24superSuperLightAsyncTestP11ITaskSystem, symObjAddr: 0xCC0, symBinAddr: 0x100004EF4, symSize: 0x14 }
  - { offsetInCU: 0x20D2F, offset: 0x20D2F, size: 0x8, addend: 0x0, symName: __Z14superLightTestP11ITaskSystem, symObjAddr: 0xCD4, symBinAddr: 0x100004F08, symSize: 0x14 }
  - { offsetInCU: 0x20DA9, offset: 0x20DA9, size: 0x8, addend: 0x0, symName: __Z19superLightAsyncTestP11ITaskSystem, symObjAddr: 0xCE8, symBinAddr: 0x100004F1C, symSize: 0x14 }
  - { offsetInCU: 0x20E23, offset: 0x20E23, size: 0x8, addend: 0x0, symName: __Z17pingPongEqualTestP11ITaskSystem, symObjAddr: 0xCFC, symBinAddr: 0x100004F30, symSize: 0x14 }
  - { offsetInCU: 0x20E9D, offset: 0x20E9D, size: 0x8, addend: 0x0, symName: __Z19pingPongUnequalTestP11ITaskSystem, symObjAddr: 0xD10, symBinAddr: 0x100004F44, symSize: 0x14 }
  - { offsetInCU: 0x20F17, offset: 0x20F17, size: 0x8, addend: 0x0, symName: __Z22pingPongEqualAsyncTestP11ITaskSystem, symObjAddr: 0xD24, symBinAddr: 0x100004F58, symSize: 0x14 }
  - { offsetInCU: 0x20F91, offset: 0x20F91, size: 0x8, addend: 0x0, symName: __Z24pingPongUnequalAsyncTestP11ITaskSystem, symObjAddr: 0xD38, symBinAddr: 0x100004F6C, symSize: 0x14 }
  - { offsetInCU: 0x2128C, offset: 0x2128C, size: 0x8, addend: 0x0, symName: __Z26recursiveFibonacciTestBaseP11ITaskSystemb, symObjAddr: 0xD4C, symBinAddr: 0x100004F80, symSize: 0xDEC }
  - { offsetInCU: 0x22343, offset: 0x22343, size: 0x8, addend: 0x0, symName: __Z22recursiveFibonacciTestP11ITaskSystem, symObjAddr: 0x1B38, symBinAddr: 0x100005D6C, symSize: 0x8 }
  - { offsetInCU: 0x2238C, offset: 0x2238C, size: 0x8, addend: 0x0, symName: __Z27recursiveFibonacciAsyncTestP11ITaskSystem, symObjAddr: 0x1B40, symBinAddr: 0x100005D74, symSize: 0x8 }
  - { offsetInCU: 0x22799, offset: 0x22799, size: 0x8, addend: 0x0, symName: __Z36mathOperationsInTightForLoopTestBaseP11ITaskSystemibb, symObjAddr: 0x1B48, symBinAddr: 0x100005D7C, symSize: 0x488 }
  - { offsetInCU: 0x23420, offset: 0x23420, size: 0x8, addend: 0x0, symName: __ZNSt3__16vectorI32MathOperationsInTightForLoopTaskNS_9allocatorIS1_EEE21__push_back_slow_pathIS1_EEvOT_, symObjAddr: 0x7D84, symBinAddr: 0x10000BFB8, symSize: 0x188 }
  - { offsetInCU: 0x238FD, offset: 0x238FD, size: 0x8, addend: 0x0, symName: __ZNKSt3__16vectorI32MathOperationsInTightForLoopTaskNS_9allocatorIS1_EEE20__throw_length_errorB8ue170006Ev, symObjAddr: 0x7F0C, symBinAddr: 0x10000C140, symSize: 0x14 }
  - { offsetInCU: 0x23911, offset: 0x23911, size: 0x8, addend: 0x0, symName: __ZNSt3__16vectorI32MathOperationsInTightForLoopTaskNS_9allocatorIS1_EEED1B8ue170006Ev, symObjAddr: 0x1FD4, symBinAddr: 0x100006208, symSize: 0x70 }
  - { offsetInCU: 0x23AB2, offset: 0x23AB2, size: 0x8, addend: 0x0, symName: __ZN32MathOperationsInTightForLoopTaskD1Ev, symObjAddr: 0x1FD0, symBinAddr: 0x100006204, symSize: 0x4 }
  - { offsetInCU: 0x23AD4, offset: 0x23AD4, size: 0x8, addend: 0x0, symName: __ZN32MathOperationsInTightForLoopTaskD1Ev, symObjAddr: 0x1FD0, symBinAddr: 0x100006204, symSize: 0x4 }
  - { offsetInCU: 0x23AEF, offset: 0x23AEF, size: 0x8, addend: 0x0, symName: __Z32mathOperationsInTightForLoopTestP11ITaskSystem, symObjAddr: 0x2044, symBinAddr: 0x100006278, symSize: 0x10 }
  - { offsetInCU: 0x23B42, offset: 0x23B42, size: 0x8, addend: 0x0, symName: __Z37mathOperationsInTightForLoopAsyncTestP11ITaskSystem, symObjAddr: 0x2054, symBinAddr: 0x100006288, symSize: 0x10 }
  - { offsetInCU: 0x23B95, offset: 0x23B95, size: 0x8, addend: 0x0, symName: __Z42mathOperationsInTightForLoopFewerTasksTestP11ITaskSystem, symObjAddr: 0x2064, symBinAddr: 0x100006298, symSize: 0x10 }
  - { offsetInCU: 0x23BE8, offset: 0x23BE8, size: 0x8, addend: 0x0, symName: __Z47mathOperationsInTightForLoopFewerTasksAsyncTestP11ITaskSystem, symObjAddr: 0x2074, symBinAddr: 0x1000062A8, symSize: 0x10 }
  - { offsetInCU: 0x23EA2, offset: 0x23EA2, size: 0x8, addend: 0x0, symName: __Z41mathOperationsInTightForLoopFanInTestBaseP11ITaskSystemb, symObjAddr: 0x2084, symBinAddr: 0x1000062B8, symSize: 0x5F0 }
  - { offsetInCU: 0x250BF, offset: 0x250BF, size: 0x8, addend: 0x0, symName: __ZNKSt3__16vectorIiNS_9allocatorIiEEE20__throw_length_errorB8ue170006Ev, symObjAddr: 0x7CD4, symBinAddr: 0x10000BF08, symSize: 0x14 }
  - { offsetInCU: 0x250E8, offset: 0x250E8, size: 0x8, addend: 0x0, symName: __ZNSt3__120__throw_length_errorB8ue170006EPKc, symObjAddr: 0x7CE8, symBinAddr: 0x10000BF1C, symSize: 0x50 }
  - { offsetInCU: 0x250F3, offset: 0x250F3, size: 0x8, addend: 0x0, symName: __ZN10ReduceTaskD1Ev, symObjAddr: 0x2674, symBinAddr: 0x1000068A8, symSize: 0x4 }
  - { offsetInCU: 0x25115, offset: 0x25115, size: 0x8, addend: 0x0, symName: __ZN10ReduceTaskD1Ev, symObjAddr: 0x2674, symBinAddr: 0x1000068A8, symSize: 0x4 }
  - { offsetInCU: 0x25130, offset: 0x25130, size: 0x8, addend: 0x0, symName: __Z37mathOperationsInTightForLoopFanInTestP11ITaskSystem, symObjAddr: 0x2678, symBinAddr: 0x1000068AC, symSize: 0x8 }
  - { offsetInCU: 0x25179, offset: 0x25179, size: 0x8, addend: 0x0, symName: __Z42mathOperationsInTightForLoopFanInAsyncTestP11ITaskSystem, symObjAddr: 0x2680, symBinAddr: 0x1000068B4, symSize: 0x8 }
  - { offsetInCU: 0x26226, offset: 0x26226, size: 0x8, addend: 0x0, symName: __Z49mathOperationsInTightForLoopReductionTreeTestBaseP11ITaskSystemb, symObjAddr: 0x2688, symBinAddr: 0x1000068BC, symSize: 0x13FC }
  - { offsetInCU: 0x2BDBD, offset: 0x2BDBD, size: 0x8, addend: 0x0, symName: __ZNSt3__16vectorINS0_IiNS_9allocatorIiEEEENS1_IS3_EEE24__emplace_back_slow_pathIJRS3_EEEvDpOT_, symObjAddr: 0x7F48, symBinAddr: 0x10000C17C, symSize: 0x220 }
  - { offsetInCU: 0x2C87F, offset: 0x2C87F, size: 0x8, addend: 0x0, symName: __ZNKSt3__16vectorI10ReduceTaskNS_9allocatorIS1_EEE20__throw_length_errorB8ue170006Ev, symObjAddr: 0x7F34, symBinAddr: 0x10000C168, symSize: 0x14 }
  - { offsetInCU: 0x2C8A8, offset: 0x2C8A8, size: 0x8, addend: 0x0, symName: __ZNSt3__16vectorINS0_IiNS_9allocatorIiEEEENS1_IS3_EEE24__emplace_back_slow_pathIJRS3_EEEvDpOT_, symObjAddr: 0x7F48, symBinAddr: 0x10000C17C, symSize: 0x220 }
  - { offsetInCU: 0x2C8B3, offset: 0x2C8B3, size: 0x8, addend: 0x0, symName: __ZNKSt3__16vectorIPfNS_9allocatorIS1_EEE20__throw_length_errorB8ue170006Ev, symObjAddr: 0x7F20, symBinAddr: 0x10000C154, symSize: 0x14 }
  - { offsetInCU: 0x2C8DC, offset: 0x2C8DC, size: 0x8, addend: 0x0, symName: __ZNKSt3__16vectorI10ReduceTaskNS_9allocatorIS1_EEE20__throw_length_errorB8ue170006Ev, symObjAddr: 0x7F34, symBinAddr: 0x10000C168, symSize: 0x14 }
  - { offsetInCU: 0x2C8E7, offset: 0x2C8E7, size: 0x8, addend: 0x0, symName: __ZNSt3__16vectorINS0_IiNS_9allocatorIiEEEENS1_IS3_EEED1B8ue170006Ev, symObjAddr: 0x3A84, symBinAddr: 0x100007CB8, symSize: 0x74 }
  - { offsetInCU: 0x2CBA8, offset: 0x2CBA8, size: 0x8, addend: 0x0, symName: __ZNSt3__16vectorI10ReduceTaskNS_9allocatorIS1_EEED1B8ue170006Ev, symObjAddr: 0x3AF8, symBinAddr: 0x100007D2C, symSize: 0x70 }
  - { offsetInCU: 0x2CD49, offset: 0x2CD49, size: 0x8, addend: 0x0, symName: __Z45mathOperationsInTightForLoopReductionTreeTestP11ITaskSystem, symObjAddr: 0x3B68, symBinAddr: 0x100007D9C, symSize: 0x8 }
  - { offsetInCU: 0x2CD92, offset: 0x2CD92, size: 0x8, addend: 0x0, symName: __Z50mathOperationsInTightForLoopReductionTreeAsyncTestP11ITaskSystem, symObjAddr: 0x3B70, symBinAddr: 0x100007DA4, symSize: 0x8 }
  - { offsetInCU: 0x2CF07, offset: 0x2CF07, size: 0x8, addend: 0x0, symName: __Z27spinBetweenRunCallsTestBaseP11ITaskSystemb, symObjAddr: 0x3B78, symBinAddr: 0x100007DAC, symSize: 0x548 }
  - { offsetInCU: 0x2DE5D, offset: 0x2DE5D, size: 0x8, addend: 0x0, symName: __ZN22RecursiveFibonacciTaskD1Ev, symObjAddr: 0x40C0, symBinAddr: 0x1000082F4, symSize: 0x4 }
  - { offsetInCU: 0x2DE7F, offset: 0x2DE7F, size: 0x8, addend: 0x0, symName: __ZN22RecursiveFibonacciTaskD1Ev, symObjAddr: 0x40C0, symBinAddr: 0x1000082F4, symSize: 0x4 }
  - { offsetInCU: 0x2DE99, offset: 0x2DE99, size: 0x8, addend: 0x0, symName: __ZN9LightTaskD1Ev, symObjAddr: 0x40C4, symBinAddr: 0x1000082F8, symSize: 0x4 }
  - { offsetInCU: 0x2DEBB, offset: 0x2DEBB, size: 0x8, addend: 0x0, symName: __ZN9LightTaskD1Ev, symObjAddr: 0x40C4, symBinAddr: 0x1000082F8, symSize: 0x4 }
  - { offsetInCU: 0x2DED5, offset: 0x2DED5, size: 0x8, addend: 0x0, symName: __Z23spinBetweenRunCallsTestP11ITaskSystem, symObjAddr: 0x40C8, symBinAddr: 0x1000082FC, symSize: 0x8 }
  - { offsetInCU: 0x2DF1E, offset: 0x2DF1E, size: 0x8, addend: 0x0, symName: __Z28spinBetweenRunCallsAsyncTestP11ITaskSystem, symObjAddr: 0x40D0, symBinAddr: 0x100008304, symSize: 0x8 }
  - { offsetInCU: 0x2E337, offset: 0x2E337, size: 0x8, addend: 0x0, symName: __Z25mandelbrotChunkedTestBaseP11ITaskSystemb, symObjAddr: 0x40D8, symBinAddr: 0x10000830C, symSize: 0x464 }
  - { offsetInCU: 0x2EA1A, offset: 0x2EA1A, size: 0x8, addend: 0x0, symName: __ZN14MandelbrotTaskD1Ev, symObjAddr: 0x453C, symBinAddr: 0x100008770, symSize: 0x4 }
  - { offsetInCU: 0x2EA3C, offset: 0x2EA3C, size: 0x8, addend: 0x0, symName: __ZN14MandelbrotTaskD1Ev, symObjAddr: 0x453C, symBinAddr: 0x100008770, symSize: 0x4 }
  - { offsetInCU: 0x2EA57, offset: 0x2EA57, size: 0x8, addend: 0x0, symName: __Z21mandelbrotChunkedTestP11ITaskSystem, symObjAddr: 0x4540, symBinAddr: 0x100008774, symSize: 0x8 }
  - { offsetInCU: 0x2EAA0, offset: 0x2EAA0, size: 0x8, addend: 0x0, symName: __Z26mandelbrotChunkedAsyncTestP11ITaskSystem, symObjAddr: 0x4548, symBinAddr: 0x10000877C, symSize: 0x8 }
  - { offsetInCU: 0x2EBB6, offset: 0x2EBB6, size: 0x8, addend: 0x0, symName: __Z17simpleRunDepsTestP11ITaskSystem, symObjAddr: 0x4550, symBinAddr: 0x100008784, symSize: 0x434 }
  - { offsetInCU: 0x302CE, offset: 0x302CE, size: 0x8, addend: 0x0, symName: __Z21strictDiamondDepsTestP11ITaskSystem, symObjAddr: 0x4984, symBinAddr: 0x100008BB8, symSize: 0xA40 }
  - { offsetInCU: 0x3446F, offset: 0x3446F, size: 0x8, addend: 0x0, symName: __Z23strictGraphDepsTestBaseP11ITaskSystemiij, symObjAddr: 0x53C4, symBinAddr: 0x1000095F8, symSize: 0xBF8 }
  - { offsetInCU: 0x368F6, offset: 0x368F6, size: 0x8, addend: 0x0, symName: __ZNSt3__16__treeINS_4pairIiiEENS_4lessIS2_EENS_9allocatorIS2_EEE7destroyEPNS_11__tree_nodeIS2_PvEE, symObjAddr: 0x81FC, symBinAddr: 0x10000C430, symSize: 0x40 }
  - { offsetInCU: 0x36A2C, offset: 0x36A2C, size: 0x8, addend: 0x0, symName: __ZNKSt3__16vectorIP9IRunnableNS_9allocatorIS2_EEE20__throw_length_errorB8ue170006Ev, symObjAddr: 0x83F0, symBinAddr: 0x10000C624, symSize: 0x14 }
  - { offsetInCU: 0x36A55, offset: 0x36A55, size: 0x8, addend: 0x0, symName: __ZNKSt3__112basic_stringIcNS_11char_traitsIcEENS_9allocatorIcEEE20__throw_length_errorB8ue170006Ev, symObjAddr: 0x8404, symBinAddr: 0x10000C638, symSize: 0x14 }
  - { offsetInCU: 0x36A60, offset: 0x36A60, size: 0x8, addend: 0x0, symName: __ZNKSt3__16vectorIPbNS_9allocatorIS1_EEE20__throw_length_errorB8ue170006Ev, symObjAddr: 0x81E8, symBinAddr: 0x10000C41C, symSize: 0x14 }
  - { offsetInCU: 0x36A89, offset: 0x36A89, size: 0x8, addend: 0x0, symName: __ZNSt3__16__treeINS_4pairIiiEENS_4lessIS2_EENS_9allocatorIS2_EEE7destroyEPNS_11__tree_nodeIS2_PvEE, symObjAddr: 0x81FC, symBinAddr: 0x10000C430, symSize: 0x40 }
  - { offsetInCU: 0x36A94, offset: 0x36A94, size: 0x8, addend: 0x0, symName: __Z20strictGraphDepsSmallP11ITaskSystem, symObjAddr: 0x5FBC, symBinAddr: 0x10000A1F0, symSize: 0x10 }
  - { offsetInCU: 0x36AE7, offset: 0x36AE7, size: 0x8, addend: 0x0, symName: __Z21strictGraphDepsMediumP11ITaskSystem, symObjAddr: 0x5FCC, symBinAddr: 0x10000A200, symSize: 0x10 }
  - { offsetInCU: 0x36B3D, offset: 0x36B3D, size: 0x8, addend: 0x0, symName: __Z20strictGraphDepsLargeP11ITaskSystem, symObjAddr: 0x5FDC, symBinAddr: 0x10000A210, symSize: 0x10 }
  - { offsetInCU: 0x36C08, offset: 0x36C08, size: 0x8, addend: 0x0, symName: __Z5usagePKcPNSt3__112basic_stringIcNS1_11char_traitsIcEENS1_9allocatorIcEEEEi, symObjAddr: 0x5FEC, symBinAddr: 0x10000A220, symSize: 0xE4 }
  - { offsetInCU: 0x36CFD, offset: 0x36CFD, size: 0x8, addend: 0x0, symName: __Z23selectTaskSystemRefImpli14TaskSystemType, symObjAddr: 0x60D0, symBinAddr: 0x10000A304, symSize: 0xE0 }
  - { offsetInCU: 0x36D31, offset: 0x36D31, size: 0x8, addend: 0x0, symName: __Z23selectTaskSystemRefImpli14TaskSystemType.cold.1, symObjAddr: 0x8418, symBinAddr: 0x10000E88C, symSize: 0x28 }
  - { offsetInCU: 0x372C0, offset: 0x372C0, size: 0x8, addend: 0x0, symName: __ZNKSt3__112basic_stringIcNS_11char_traitsIcEENS_9allocatorIcEEE20__throw_length_errorB8ue170006Ev, symObjAddr: 0x8404, symBinAddr: 0x10000C638, symSize: 0x14 }
  - { offsetInCU: 0x372E9, offset: 0x372E9, size: 0x8, addend: 0x0, symName: __Z23selectTaskSystemRefImpli14TaskSystemType.cold.1, symObjAddr: 0x8418, symBinAddr: 0x10000E88C, symSize: 0x28 }
  - { offsetInCU: 0x372F4, offset: 0x372F4, size: 0x8, addend: 0x0, symName: __ZN18SimpleMultiplyTaskD0Ev, symObjAddr: 0x7388, symBinAddr: 0x10000B5BC, symSize: 0x14 }
  - { offsetInCU: 0x3738B, offset: 0x3738B, size: 0x8, addend: 0x0, symName: __ZN18SimpleMultiplyTask7runTaskEii, symObjAddr: 0x739C, symBinAddr: 0x10000B5D0, symSize: 0xBC }
  - { offsetInCU: 0x37467, offset: 0x37467, size: 0x8, addend: 0x0, symName: __ZN12PingPongTaskD1Ev, symObjAddr: 0x7458, symBinAddr: 0x10000B68C, symSize: 0x4 }
  - { offsetInCU: 0x37489, offset: 0x37489, size: 0x8, addend: 0x0, symName: __ZN12PingPongTaskD1Ev, symObjAddr: 0x7458, symBinAddr: 0x10000B68C, symSize: 0x4 }
  - { offsetInCU: 0x374BD, offset: 0x374BD, size: 0x8, addend: 0x0, symName: __ZN12PingPongTaskD0Ev, symObjAddr: 0x745C, symBinAddr: 0x10000B690, symSize: 0x14 }
  - { offsetInCU: 0x37552, offset: 0x37552, size: 0x8, addend: 0x0, symName: __ZN12PingPongTask7runTaskEii, symObjAddr: 0x7470, symBinAddr: 0x10000B6A4, symSize: 0x1EC }
  - { offsetInCU: 0x376CE, offset: 0x376CE, size: 0x8, addend: 0x0, symName: __ZN22RecursiveFibonacciTaskD0Ev, symObjAddr: 0x765C, symBinAddr: 0x10000B890, symSize: 0x14 }
  - { offsetInCU: 0x3772F, offset: 0x3772F, size: 0x8, addend: 0x0, symName: __ZN22RecursiveFibonacciTask7runTaskEii, symObjAddr: 0x7670, symBinAddr: 0x10000B8A4, symSize: 0x30 }
  - { offsetInCU: 0x37789, offset: 0x37789, size: 0x8, addend: 0x0, symName: __ZN22RecursiveFibonacciTask6slowFnEi, symObjAddr: 0x76A0, symBinAddr: 0x10000B8D4, symSize: 0x5C }
  - { offsetInCU: 0x377D9, offset: 0x377D9, size: 0x8, addend: 0x0, symName: __ZN32MathOperationsInTightForLoopTaskD0Ev, symObjAddr: 0x76FC, symBinAddr: 0x10000B930, symSize: 0x14 }
  - { offsetInCU: 0x3783C, offset: 0x3783C, size: 0x8, addend: 0x0, symName: __ZN32MathOperationsInTightForLoopTask7runTaskEii, symObjAddr: 0x7710, symBinAddr: 0x10000B944, symSize: 0x148 }
  - { offsetInCU: 0x3791B, offset: 0x3791B, size: 0x8, addend: 0x0, symName: __ZN10ReduceTaskD0Ev, symObjAddr: 0x7858, symBinAddr: 0x10000BA8C, symSize: 0x14 }
  - { offsetInCU: 0x37981, offset: 0x37981, size: 0x8, addend: 0x0, symName: __ZN10ReduceTask7runTaskEii, symObjAddr: 0x786C, symBinAddr: 0x10000BAA0, symSize: 0x70 }
  - { offsetInCU: 0x379EE, offset: 0x379EE, size: 0x8, addend: 0x0, symName: __ZN9LightTaskD0Ev, symObjAddr: 0x78DC, symBinAddr: 0x10000BB10, symSize: 0x14 }
  - { offsetInCU: 0x37A4F, offset: 0x37A4F, size: 0x8, addend: 0x0, symName: __ZN9LightTask7runTaskEii, symObjAddr: 0x78F0, symBinAddr: 0x10000BB24, symSize: 0xC }
  - { offsetInCU: 0x37A90, offset: 0x37A90, size: 0x8, addend: 0x0, symName: __ZN14MandelbrotTaskD0Ev, symObjAddr: 0x78FC, symBinAddr: 0x10000BB30, symSize: 0x14 }
  - { offsetInCU: 0x37BF3, offset: 0x37BF3, size: 0x8, addend: 0x0, symName: __ZN14MandelbrotTask7runTaskEii, symObjAddr: 0x7910, symBinAddr: 0x10000BB44, symSize: 0x25C }
  - { offsetInCU: 0x37E9A, offset: 0x37E9A, size: 0x8, addend: 0x0, symName: __ZN9SleepTaskD1Ev, symObjAddr: 0x7B6C, symBinAddr: 0x10000BDA0, symSize: 0x4 }
  - { offsetInCU: 0x37EBC, offset: 0x37EBC, size: 0x8, addend: 0x0, symName: __ZN9SleepTaskD1Ev, symObjAddr: 0x7B6C, symBinAddr: 0x10000BDA0, symSize: 0x4 }
  - { offsetInCU: 0x37EF1, offset: 0x37EF1, size: 0x8, addend: 0x0, symName: __ZN9SleepTaskD0Ev, symObjAddr: 0x7B70, symBinAddr: 0x10000BDA4, symSize: 0x14 }
  - { offsetInCU: 0x37FCA, offset: 0x37FCA, size: 0x8, addend: 0x0, symName: __ZN9SleepTask7runTaskEii, symObjAddr: 0x7B84, symBinAddr: 0x10000BDB8, symSize: 0x60 }
  - { offsetInCU: 0x380CE, offset: 0x380CE, size: 0x8, addend: 0x0, symName: __ZN20StrictDependencyTaskD1Ev, symObjAddr: 0x7BE4, symBinAddr: 0x10000BE18, symSize: 0x4 }
  - { offsetInCU: 0x380F0, offset: 0x380F0, size: 0x8, addend: 0x0, symName: __ZN20StrictDependencyTaskD1Ev, symObjAddr: 0x7BE4, symBinAddr: 0x10000BE18, symSize: 0x4 }
  - { offsetInCU: 0x38125, offset: 0x38125, size: 0x8, addend: 0x0, symName: __ZN20StrictDependencyTaskD0Ev, symObjAddr: 0x7BE8, symBinAddr: 0x10000BE1C, symSize: 0x14 }
  - { offsetInCU: 0x38272, offset: 0x38272, size: 0x8, addend: 0x0, symName: __ZN20StrictDependencyTask7runTaskEii, symObjAddr: 0x7BFC, symBinAddr: 0x10000BE30, symSize: 0xD8 }
  - { offsetInCU: 0x384B3, offset: 0x384B3, size: 0x8, addend: 0x0, symName: __ZNSt12length_errorC1B8ue170006EPKc, symObjAddr: 0x7D38, symBinAddr: 0x10000BF6C, symSize: 0x24 }
  - { offsetInCU: 0x3873E, offset: 0x3873E, size: 0x8, addend: 0x0, symName: __ZNKSt3__16vectorI32MathOperationsInTightForLoopTaskNS_9allocatorIS1_EEE20__throw_length_errorB8ue170006Ev, symObjAddr: 0x7F0C, symBinAddr: 0x10000C140, symSize: 0x14 }
  - { offsetInCU: 0x38767, offset: 0x38767, size: 0x8, addend: 0x0, symName: __ZNKSt3__16vectorIPfNS_9allocatorIS1_EEE20__throw_length_errorB8ue170006Ev, symObjAddr: 0x7F20, symBinAddr: 0x10000C154, symSize: 0x14 }
  - { offsetInCU: 0x38ABF, offset: 0x38ABF, size: 0x8, addend: 0x0, symName: __ZNKSt3__16vectorINS0_IiNS_9allocatorIiEEEENS1_IS3_EEE20__throw_length_errorB8ue170006Ev, symObjAddr: 0x81D4, symBinAddr: 0x10000C408, symSize: 0x14 }
  - { offsetInCU: 0x38AE8, offset: 0x38AE8, size: 0x8, addend: 0x0, symName: __ZNKSt3__16vectorIPbNS_9allocatorIS1_EEE20__throw_length_errorB8ue170006Ev, symObjAddr: 0x81E8, symBinAddr: 0x10000C41C, symSize: 0x14 }
  - { offsetInCU: 0x38AF3, offset: 0x38AF3, size: 0x8, addend: 0x0, symName: __ZNSt3__114__split_bufferINS_6vectorIiNS_9allocatorIiEEEERNS2_IS4_EEED1Ev, symObjAddr: 0x8168, symBinAddr: 0x10000C39C, symSize: 0x6C }
  - { offsetInCU: 0xA4F1, offset: 0x43397, size: 0x8, addend: 0x0, symName: __ZNSt3__114__thread_proxyB8ue170006INS_5tupleIJNS_10unique_ptrINS_15__thread_structENS_14default_deleteIS3_EEEEZN10ThreadPoolC1EmEUlvE_EEEEEPvSA_, symObjAddr: 0xF28, symBinAddr: 0x10000D574, symSize: 0x78 }
  - { offsetInCU: 0xA879, offset: 0x4371F, size: 0x8, addend: 0x0, symName: __ZNSt3__125__throw_bad_function_callB8ue170006Ev, symObjAddr: 0x12FC, symBinAddr: 0x10000D948, symSize: 0x34 }
  - { offsetInCU: 0xA997, offset: 0x4383D, size: 0x8, addend: 0x0, symName: '__ZNSt3__114__thread_proxyB8ue170006INS_5tupleIJNS_10unique_ptrINS_15__thread_structENS_14default_deleteIS3_EEEEZN23TaskSystemParallelSpawn3runEP9IRunnableiE3$_0EEEEEPvSC_', symObjAddr: 0x15E0, symBinAddr: 0x10000DB90, symSize: 0xA8 }
  - { offsetInCU: 0xC56A, offset: 0x45410, size: 0x8, addend: 0x0, symName: __ZN10ThreadPoolC2Em, symObjAddr: 0xB78, symBinAddr: 0x10000D1C4, symSize: 0x148 }
  - { offsetInCU: 0xCB57, offset: 0x459FD, size: 0x8, addend: 0x0, symName: __ZN23TaskSystemParallelSpawn3runEP9IRunnablei, symObjAddr: 0x304, symBinAddr: 0x10000C950, symSize: 0x184 }
  - { offsetInCU: 0xD36F, offset: 0x46215, size: 0x8, addend: 0x0, symName: __ZN36TaskSystemParallelThreadPoolSpinning3runEP9IRunnablei, symObjAddr: 0x630, symBinAddr: 0x10000CC7C, symSize: 0x1C4 }
  - { offsetInCU: 0xDC8F, offset: 0x46B35, size: 0x8, addend: 0x0, symName: __ZN36TaskSystemParallelThreadPoolSleeping3runEP9IRunnablei, symObjAddr: 0x99C, symBinAddr: 0x10000CFE8, symSize: 0x1C4 }
  - { offsetInCU: 0x1035D, offset: 0x49203, size: 0x8, addend: 0x0, symName: __ZN9IRunnableD2Ev, symObjAddr: 0x0, symBinAddr: 0x10000C64C, symSize: 0x4 }
  - { offsetInCU: 0x10388, offset: 0x4922E, size: 0x8, addend: 0x0, symName: __ZN9IRunnableD1Ev, symObjAddr: 0x4, symBinAddr: 0x10000C650, symSize: 0x4 }
  - { offsetInCU: 0x103B1, offset: 0x49257, size: 0x8, addend: 0x0, symName: __ZN9IRunnableD0Ev, symObjAddr: 0x8, symBinAddr: 0x10000C654, symSize: 0x4 }
  - { offsetInCU: 0x103DA, offset: 0x49280, size: 0x8, addend: 0x0, symName: __ZN11ITaskSystemC2Ei, symObjAddr: 0xC, symBinAddr: 0x10000C658, symSize: 0x10 }
  - { offsetInCU: 0x10413, offset: 0x492B9, size: 0x8, addend: 0x0, symName: __ZN11ITaskSystemD2Ev, symObjAddr: 0x1C, symBinAddr: 0x10000C668, symSize: 0x4 }
  - { offsetInCU: 0x1043E, offset: 0x492E4, size: 0x8, addend: 0x0, symName: __ZN11ITaskSystemD1Ev, symObjAddr: 0x20, symBinAddr: 0x10000C66C, symSize: 0x4 }
  - { offsetInCU: 0x10467, offset: 0x4930D, size: 0x8, addend: 0x0, symName: __ZN11ITaskSystemD0Ev, symObjAddr: 0x24, symBinAddr: 0x10000C670, symSize: 0x4 }
  - { offsetInCU: 0x1055E, offset: 0x49404, size: 0x8, addend: 0x0, symName: __ZN16TaskSystemSerial4nameEv, symObjAddr: 0x28, symBinAddr: 0x10000C674, symSize: 0xC }
  - { offsetInCU: 0x10583, offset: 0x49429, size: 0x8, addend: 0x0, symName: __ZN16TaskSystemSerialC2Ei, symObjAddr: 0x34, symBinAddr: 0x10000C680, symSize: 0x10 }
  - { offsetInCU: 0x105D6, offset: 0x4947C, size: 0x8, addend: 0x0, symName: __ZN16TaskSystemSerialC1Ei, symObjAddr: 0x44, symBinAddr: 0x10000C690, symSize: 0x10 }
  - { offsetInCU: 0x10612, offset: 0x494B8, size: 0x8, addend: 0x0, symName: __ZN16TaskSystemSerialC1Ei, symObjAddr: 0x44, symBinAddr: 0x10000C690, symSize: 0x10 }
  - { offsetInCU: 0x10632, offset: 0x494D8, size: 0x8, addend: 0x0, symName: __ZN16TaskSystemSerialD2Ev, symObjAddr: 0x54, symBinAddr: 0x10000C6A0, symSize: 0x4 }
  - { offsetInCU: 0x1065D, offset: 0x49503, size: 0x8, addend: 0x0, symName: __ZN16TaskSystemSerialD1Ev, symObjAddr: 0x58, symBinAddr: 0x10000C6A4, symSize: 0x4 }
  - { offsetInCU: 0x10688, offset: 0x4952E, size: 0x8, addend: 0x0, symName: __ZN16TaskSystemSerialD0Ev, symObjAddr: 0x5C, symBinAddr: 0x10000C6A8, symSize: 0x4 }
  - { offsetInCU: 0x106B3, offset: 0x49559, size: 0x8, addend: 0x0, symName: __ZN16TaskSystemSerial3runEP9IRunnablei, symObjAddr: 0x60, symBinAddr: 0x10000C6AC, symSize: 0x58 }
  - { offsetInCU: 0x10731, offset: 0x495D7, size: 0x8, addend: 0x0, symName: __ZN16TaskSystemSerial16runAsyncWithDepsEP9IRunnableiRKNSt3__16vectorIiNS2_9allocatorIiEEEE, symObjAddr: 0xB8, symBinAddr: 0x10000C704, symSize: 0x8 }
  - { offsetInCU: 0x10777, offset: 0x4961D, size: 0x8, addend: 0x0, symName: __ZN16TaskSystemSerial4syncEv, symObjAddr: 0xC0, symBinAddr: 0x10000C70C, symSize: 0x4 }
  - { offsetInCU: 0x1079C, offset: 0x49642, size: 0x8, addend: 0x0, symName: __ZN23TaskSystemParallelSpawn4nameEv, symObjAddr: 0xC4, symBinAddr: 0x10000C710, symSize: 0xC }
  - { offsetInCU: 0x10929, offset: 0x497CF, size: 0x8, addend: 0x0, symName: __ZN23TaskSystemParallelSpawnC2Ei, symObjAddr: 0xD0, symBinAddr: 0x10000C71C, symSize: 0x84 }
  - { offsetInCU: 0x10A50, offset: 0x498F6, size: 0x8, addend: 0x0, symName: __ZN23TaskSystemParallelSpawnC1Ei, symObjAddr: 0x154, symBinAddr: 0x10000C7A0, symSize: 0x84 }
  - { offsetInCU: 0x10C11, offset: 0x49AB7, size: 0x8, addend: 0x0, symName: __ZN23TaskSystemParallelSpawnD2Ev, symObjAddr: 0x1D8, symBinAddr: 0x10000C824, symSize: 0x64 }
  - { offsetInCU: 0x10CCD, offset: 0x49B73, size: 0x8, addend: 0x0, symName: __ZN23TaskSystemParallelSpawnD1Ev, symObjAddr: 0x23C, symBinAddr: 0x10000C888, symSize: 0x64 }
  - { offsetInCU: 0x10DA5, offset: 0x49C4B, size: 0x8, addend: 0x0, symName: __ZN23TaskSystemParallelSpawnD0Ev, symObjAddr: 0x2A0, symBinAddr: 0x10000C8EC, symSize: 0x64 }
  - { offsetInCU: 0x1155E, offset: 0x4A404, size: 0x8, addend: 0x0, symName: __ZN23TaskSystemParallelSpawn16runAsyncWithDepsEP9IRunnableiRKNSt3__16vectorIiNS2_9allocatorIiEEEE, symObjAddr: 0x488, symBinAddr: 0x10000CAD4, symSize: 0x8 }
  - { offsetInCU: 0x115A4, offset: 0x4A44A, size: 0x8, addend: 0x0, symName: __ZN23TaskSystemParallelSpawn4syncEv, symObjAddr: 0x490, symBinAddr: 0x10000CADC, symSize: 0x4 }
  - { offsetInCU: 0x115C9, offset: 0x4A46F, size: 0x8, addend: 0x0, symName: __ZN36TaskSystemParallelThreadPoolSpinning4nameEv, symObjAddr: 0x494, symBinAddr: 0x10000CAE0, symSize: 0xC }
  - { offsetInCU: 0x1172B, offset: 0x4A5D1, size: 0x8, addend: 0x0, symName: __ZN36TaskSystemParallelThreadPoolSpinningC2Ei, symObjAddr: 0x4A0, symBinAddr: 0x10000CAEC, symSize: 0x68 }
  - { offsetInCU: 0x11856, offset: 0x4A6FC, size: 0x8, addend: 0x0, symName: __ZN36TaskSystemParallelThreadPoolSpinningC1Ei, symObjAddr: 0x508, symBinAddr: 0x10000CB54, symSize: 0x68 }
  - { offsetInCU: 0x11A27, offset: 0x4A8CD, size: 0x8, addend: 0x0, symName: __ZN36TaskSystemParallelThreadPoolSpinningD2Ev, symObjAddr: 0x570, symBinAddr: 0x10000CBBC, symSize: 0x40 }
  - { offsetInCU: 0x11AFF, offset: 0x4A9A5, size: 0x8, addend: 0x0, symName: __ZN10ThreadPoolD2Ev, symObjAddr: 0x16D0, symBinAddr: 0x10000DC80, symSize: 0xE0 }
  - { offsetInCU: 0x11E2E, offset: 0x4ACD4, size: 0x8, addend: 0x0, symName: __ZN36TaskSystemParallelThreadPoolSpinningD1Ev, symObjAddr: 0x5B0, symBinAddr: 0x10000CBFC, symSize: 0x40 }
  - { offsetInCU: 0x11F3E, offset: 0x4ADE4, size: 0x8, addend: 0x0, symName: __ZN36TaskSystemParallelThreadPoolSpinningD0Ev, symObjAddr: 0x5F0, symBinAddr: 0x10000CC3C, symSize: 0x40 }
  - { offsetInCU: 0x12779, offset: 0x4B61F, size: 0x8, addend: 0x0, symName: __ZNSt3__15dequeINS_8functionIFvvEEENS_9allocatorIS3_EEE19__add_back_capacityEv, symObjAddr: 0x17B0, symBinAddr: 0x10000DD60, symSize: 0x5A8 }
  - { offsetInCU: 0x13853, offset: 0x4C6F9, size: 0x8, addend: 0x0, symName: __ZN36TaskSystemParallelThreadPoolSpinning16runAsyncWithDepsEP9IRunnableiRKNSt3__16vectorIiNS2_9allocatorIiEEEE, symObjAddr: 0x7F4, symBinAddr: 0x10000CE40, symSize: 0x8 }
  - { offsetInCU: 0x13899, offset: 0x4C73F, size: 0x8, addend: 0x0, symName: __ZN36TaskSystemParallelThreadPoolSpinning4syncEv, symObjAddr: 0x7FC, symBinAddr: 0x10000CE48, symSize: 0x4 }
  - { offsetInCU: 0x138BE, offset: 0x4C764, size: 0x8, addend: 0x0, symName: __ZN36TaskSystemParallelThreadPoolSleeping4nameEv, symObjAddr: 0x800, symBinAddr: 0x10000CE4C, symSize: 0xC }
  - { offsetInCU: 0x138E3, offset: 0x4C789, size: 0x8, addend: 0x0, symName: __ZN36TaskSystemParallelThreadPoolSleepingC2Ei, symObjAddr: 0x80C, symBinAddr: 0x10000CE58, symSize: 0x68 }
  - { offsetInCU: 0x13A0E, offset: 0x4C8B4, size: 0x8, addend: 0x0, symName: __ZN36TaskSystemParallelThreadPoolSleepingC1Ei, symObjAddr: 0x874, symBinAddr: 0x10000CEC0, symSize: 0x68 }
  - { offsetInCU: 0x13B3D, offset: 0x4C9E3, size: 0x8, addend: 0x0, symName: __ZN36TaskSystemParallelThreadPoolSleepingD2Ev, symObjAddr: 0x8DC, symBinAddr: 0x10000CF28, symSize: 0x40 }
  - { offsetInCU: 0x13C31, offset: 0x4CAD7, size: 0x8, addend: 0x0, symName: __ZN36TaskSystemParallelThreadPoolSleepingD1Ev, symObjAddr: 0x91C, symBinAddr: 0x10000CF68, symSize: 0x40 }
  - { offsetInCU: 0x13D41, offset: 0x4CBE7, size: 0x8, addend: 0x0, symName: __ZN36TaskSystemParallelThreadPoolSleepingD0Ev, symObjAddr: 0x95C, symBinAddr: 0x10000CFA8, symSize: 0x40 }
  - { offsetInCU: 0x14378, offset: 0x4D21E, size: 0x8, addend: 0x0, symName: __ZN36TaskSystemParallelThreadPoolSleeping16runAsyncWithDepsEP9IRunnableiRKNSt3__16vectorIiNS2_9allocatorIiEEEE, symObjAddr: 0xB60, symBinAddr: 0x10000D1AC, symSize: 0x8 }
  - { offsetInCU: 0x143BE, offset: 0x4D264, size: 0x8, addend: 0x0, symName: __ZN36TaskSystemParallelThreadPoolSleeping4syncEv, symObjAddr: 0xB68, symBinAddr: 0x10000D1B4, symSize: 0x4 }
  - { offsetInCU: 0x14688, offset: 0x4D52E, size: 0x8, addend: 0x0, symName: __ZNSt3__16vectorINS_6threadENS_9allocatorIS1_EEE24__emplace_back_slow_pathIJZN10ThreadPoolC1EmEUlvE_EEEvDpOT_, symObjAddr: 0xD18, symBinAddr: 0x10000D364, symSize: 0x150 }
  - { offsetInCU: 0x14C2F, offset: 0x4DAD5, size: 0x8, addend: 0x0, symName: __ZNSt3__16threadC2IZN10ThreadPoolC1EmEUlvE_JEvEEOT_DpOT0_, symObjAddr: 0xE68, symBinAddr: 0x10000D4B4, symSize: 0xC0 }
  - { offsetInCU: 0x14F66, offset: 0x4DE0C, size: 0x8, addend: 0x0, symName: __ZNSt3__15dequeINS_8functionIFvvEEENS_9allocatorIS3_EEED2B8ue170006Ev, symObjAddr: 0x1448, symBinAddr: 0x10000D9F8, symSize: 0x198 }
  - { offsetInCU: 0x154E5, offset: 0x4E38B, size: 0x8, addend: 0x0, symName: __ZNSt3__16vectorINS_6threadENS_9allocatorIS1_EEED1B8ue170006Ev, symObjAddr: 0xCC0, symBinAddr: 0x10000D30C, symSize: 0x58 }
  - { offsetInCU: 0x15AEE, offset: 0x4E994, size: 0x8, addend: 0x0, symName: __ZNKSt3__16vectorINS_6threadENS_9allocatorIS1_EEE20__throw_length_errorB8ue170006Ev, symObjAddr: 0x1398, symBinAddr: 0x10000D9E4, symSize: 0x14 }
  - { offsetInCU: 0x15B22, offset: 0x4E9C8, size: 0x8, addend: 0x0, symName: __ZNSt3__114__split_bufferINS_6threadERNS_9allocatorIS1_EEED1Ev, symObjAddr: 0x1348, symBinAddr: 0x10000D994, symSize: 0x50 }
  - { offsetInCU: 0x1605D, offset: 0x4EF03, size: 0x8, addend: 0x0, symName: __ZNSt3__110unique_ptrINS_5tupleIJNS0_INS_15__thread_structENS_14default_deleteIS2_EEEEZN10ThreadPoolC1EmEUlvE_EEENS3_IS8_EEED1B8ue170006Ev, symObjAddr: 0xFA0, symBinAddr: 0x10000D5EC, symSize: 0x48 }
  - { offsetInCU: 0x16206, offset: 0x4F0AC, size: 0x8, addend: 0x0, symName: __ZNSt3__110unique_ptrINS_15__thread_structENS_14default_deleteIS1_EEED1B8ue170006Ev, symObjAddr: 0xFE8, symBinAddr: 0x10000D634, symSize: 0x34 }
  - { offsetInCU: 0x16519, offset: 0x4F3BF, size: 0x8, addend: 0x0, symName: __ZZN10ThreadPoolC1EmENKUlvE_clEv, symObjAddr: 0x101C, symBinAddr: 0x10000D668, symSize: 0x2E0 }
  - { offsetInCU: 0x170E0, offset: 0x4FF86, size: 0x8, addend: 0x0, symName: __ZNSt3__117bad_function_callD1Ev, symObjAddr: 0x1330, symBinAddr: 0x10000D97C, symSize: 0x4 }
  - { offsetInCU: 0x17103, offset: 0x4FFA9, size: 0x8, addend: 0x0, symName: __ZNSt3__117bad_function_callD1Ev, symObjAddr: 0x1330, symBinAddr: 0x10000D97C, symSize: 0x4 }
  - { offsetInCU: 0x17136, offset: 0x4FFDC, size: 0x8, addend: 0x0, symName: __ZNSt3__117bad_function_callD0Ev, symObjAddr: 0x1334, symBinAddr: 0x10000D980, symSize: 0x14 }
  - { offsetInCU: 0x174C0, offset: 0x50366, size: 0x8, addend: 0x0, symName: '__ZNSt3__110unique_ptrINS_5tupleIJNS0_INS_15__thread_structENS_14default_deleteIS2_EEEEZN23TaskSystemParallelSpawn3runEP9IRunnableiE3$_0EEENS3_ISA_EEED1B8ue170006Ev', symObjAddr: 0x1688, symBinAddr: 0x10000DC38, symSize: 0x48 }
  - { offsetInCU: 0x17C10, offset: 0x50AB6, size: 0x8, addend: 0x0, symName: __ZNSt3__114__split_bufferIPNS_8functionIFvvEEENS_9allocatorIS4_EEE9push_backEOS4_, symObjAddr: 0x1D58, symBinAddr: 0x10000E308, symSize: 0x190 }
  - { offsetInCU: 0x180B7, offset: 0x50F5D, size: 0x8, addend: 0x0, symName: __ZNSt3__114__split_bufferIPNS_8functionIFvvEEENS_9allocatorIS4_EEE10push_frontEOS4_, symObjAddr: 0x1EE8, symBinAddr: 0x10000E498, symSize: 0x19C }
  - { offsetInCU: 0x180C1, offset: 0x50F67, size: 0x8, addend: 0x0, symName: __ZNSt3__114__split_bufferIPNS_8functionIFvvEEENS_9allocatorIS4_EEE10push_frontEOS4_, symObjAddr: 0x1EE8, symBinAddr: 0x10000E498, symSize: 0x19C }
  - { offsetInCU: 0x18547, offset: 0x513ED, size: 0x8, addend: 0x0, symName: '__ZNSt3__110__function6__funcIZN10ThreadPool7enqueueIZN36TaskSystemParallelThreadPoolSpinning3runEP9IRunnableiE3$_1JEEEvOT_DpOT0_EUlvE_NS_9allocatorISD_EEFvvEED1Ev', symObjAddr: 0x2084, symBinAddr: 0x10000E634, symSize: 0x4 }
  - { offsetInCU: 0x185AF, offset: 0x51455, size: 0x8, addend: 0x0, symName: '__ZNSt3__110__function6__funcIZN10ThreadPool7enqueueIZN36TaskSystemParallelThreadPoolSpinning3runEP9IRunnableiE3$_1JEEEvOT_DpOT0_EUlvE_NS_9allocatorISD_EEFvvEED1Ev', symObjAddr: 0x2084, symBinAddr: 0x10000E634, symSize: 0x4 }
  - { offsetInCU: 0x185DB, offset: 0x51481, size: 0x8, addend: 0x0, symName: '__ZNSt3__110__function6__funcIZN10ThreadPool7enqueueIZN36TaskSystemParallelThreadPoolSpinning3runEP9IRunnableiE3$_1JEEEvOT_DpOT0_EUlvE_NS_9allocatorISD_EEFvvEED0Ev', symObjAddr: 0x2088, symBinAddr: 0x10000E638, symSize: 0x4 }
  - { offsetInCU: 0x187B9, offset: 0x5165F, size: 0x8, addend: 0x0, symName: '__ZNKSt3__110__function6__funcIZN10ThreadPool7enqueueIZN36TaskSystemParallelThreadPoolSpinning3runEP9IRunnableiE3$_1JEEEvOT_DpOT0_EUlvE_NS_9allocatorISD_EEFvvEE7__cloneEv', symObjAddr: 0x208C, symBinAddr: 0x10000E63C, symSize: 0x40 }
  - { offsetInCU: 0x18AD9, offset: 0x5197F, size: 0x8, addend: 0x0, symName: '__ZNKSt3__110__function6__funcIZN10ThreadPool7enqueueIZN36TaskSystemParallelThreadPoolSpinning3runEP9IRunnableiE3$_1JEEEvOT_DpOT0_EUlvE_NS_9allocatorISD_EEFvvEE7__cloneEPNS0_6__baseISG_EE', symObjAddr: 0x20CC, symBinAddr: 0x10000E67C, symSize: 0x20 }
  - { offsetInCU: 0x18B11, offset: 0x519B7, size: 0x8, addend: 0x0, symName: '__ZNKSt3__110__function6__funcIZN10ThreadPool7enqueueIZN36TaskSystemParallelThreadPoolSpinning3runEP9IRunnableiE3$_1JEEEvOT_DpOT0_EUlvE_NS_9allocatorISD_EEFvvEE7__cloneEPNS0_6__baseISG_EE', symObjAddr: 0x20CC, symBinAddr: 0x10000E67C, symSize: 0x20 }
  - { offsetInCU: 0x18B36, offset: 0x519DC, size: 0x8, addend: 0x0, symName: '__ZNKSt3__110__function6__funcIZN10ThreadPool7enqueueIZN36TaskSystemParallelThreadPoolSpinning3runEP9IRunnableiE3$_1JEEEvOT_DpOT0_EUlvE_NS_9allocatorISD_EEFvvEE7__cloneEPNS0_6__baseISG_EE', symObjAddr: 0x20CC, symBinAddr: 0x10000E67C, symSize: 0x20 }
  - { offsetInCU: 0x18C1E, offset: 0x51AC4, size: 0x8, addend: 0x0, symName: '__ZNSt3__110__function6__funcIZN10ThreadPool7enqueueIZN36TaskSystemParallelThreadPoolSpinning3runEP9IRunnableiE3$_1JEEEvOT_DpOT0_EUlvE_NS_9allocatorISD_EEFvvEE7destroyEv', symObjAddr: 0x20EC, symBinAddr: 0x10000E69C, symSize: 0x4 }
  - { offsetInCU: 0x18C6F, offset: 0x51B15, size: 0x8, addend: 0x0, symName: '__ZNSt3__110__function6__funcIZN10ThreadPool7enqueueIZN36TaskSystemParallelThreadPoolSpinning3runEP9IRunnableiE3$_1JEEEvOT_DpOT0_EUlvE_NS_9allocatorISD_EEFvvEE18destroy_deallocateEv', symObjAddr: 0x20F0, symBinAddr: 0x10000E6A0, symSize: 0x4 }
  - { offsetInCU: 0x18CA5, offset: 0x51B4B, size: 0x8, addend: 0x0, symName: '__ZNSt3__110__function6__funcIZN10ThreadPool7enqueueIZN36TaskSystemParallelThreadPoolSpinning3runEP9IRunnableiE3$_1JEEEvOT_DpOT0_EUlvE_NS_9allocatorISD_EEFvvEE18destroy_deallocateEv', symObjAddr: 0x20F0, symBinAddr: 0x10000E6A0, symSize: 0x4 }
  - { offsetInCU: 0x18CC7, offset: 0x51B6D, size: 0x8, addend: 0x0, symName: '__ZNSt3__110__function6__funcIZN10ThreadPool7enqueueIZN36TaskSystemParallelThreadPoolSpinning3runEP9IRunnableiE3$_1JEEEvOT_DpOT0_EUlvE_NS_9allocatorISD_EEFvvEE18destroy_deallocateEv', symObjAddr: 0x20F0, symBinAddr: 0x10000E6A0, symSize: 0x4 }
  - { offsetInCU: 0x18CF2, offset: 0x51B98, size: 0x8, addend: 0x0, symName: '__ZNSt3__110__function6__funcIZN10ThreadPool7enqueueIZN36TaskSystemParallelThreadPoolSpinning3runEP9IRunnableiE3$_1JEEEvOT_DpOT0_EUlvE_NS_9allocatorISD_EEFvvEE18destroy_deallocateEv', symObjAddr: 0x20F0, symBinAddr: 0x10000E6A0, symSize: 0x4 }
  - { offsetInCU: 0x18D18, offset: 0x51BBE, size: 0x8, addend: 0x0, symName: '__ZNSt3__110__function6__funcIZN10ThreadPool7enqueueIZN36TaskSystemParallelThreadPoolSpinning3runEP9IRunnableiE3$_1JEEEvOT_DpOT0_EUlvE_NS_9allocatorISD_EEFvvEE18destroy_deallocateEv', symObjAddr: 0x20F0, symBinAddr: 0x10000E6A0, symSize: 0x4 }
  - { offsetInCU: 0x18DBC, offset: 0x51C62, size: 0x8, addend: 0x0, symName: '__ZNSt3__110__function6__funcIZN10ThreadPool7enqueueIZN36TaskSystemParallelThreadPoolSpinning3runEP9IRunnableiE3$_1JEEEvOT_DpOT0_EUlvE_NS_9allocatorISD_EEFvvEEclEv', symObjAddr: 0x20F4, symBinAddr: 0x10000E6A4, symSize: 0x50 }
  - { offsetInCU: 0x18F01, offset: 0x51DA7, size: 0x8, addend: 0x0, symName: '__ZNKSt3__110__function6__funcIZN10ThreadPool7enqueueIZN36TaskSystemParallelThreadPoolSpinning3runEP9IRunnableiE3$_1JEEEvOT_DpOT0_EUlvE_NS_9allocatorISD_EEFvvEE6targetERKSt9type_info', symObjAddr: 0x2144, symBinAddr: 0x10000E6F4, symSize: 0x60 }
  - { offsetInCU: 0x18F86, offset: 0x51E2C, size: 0x8, addend: 0x0, symName: '__ZNKSt3__110__function6__funcIZN10ThreadPool7enqueueIZN36TaskSystemParallelThreadPoolSpinning3runEP9IRunnableiE3$_1JEEEvOT_DpOT0_EUlvE_NS_9allocatorISD_EEFvvEE11target_typeEv', symObjAddr: 0x21A4, symBinAddr: 0x10000E754, symSize: 0xC }
  - { offsetInCU: 0x18FAB, offset: 0x51E51, size: 0x8, addend: 0x0, symName: '__ZNSt3__110__function6__funcIZN10ThreadPool7enqueueIZN36TaskSystemParallelThreadPoolSleeping3runEP9IRunnableiE3$_2JEEEvOT_DpOT0_EUlvE_NS_9allocatorISD_EEFvvEED1Ev', symObjAddr: 0x21B0, symBinAddr: 0x10000E760, symSize: 0x4 }
  - { offsetInCU: 0x18FD7, offset: 0x51E7D, size: 0x8, addend: 0x0, symName: '__ZNSt3__110__function6__funcIZN10ThreadPool7enqueueIZN36TaskSystemParallelThreadPoolSleeping3runEP9IRunnableiE3$_2JEEEvOT_DpOT0_EUlvE_NS_9allocatorISD_EEFvvEED0Ev', symObjAddr: 0x21B4, symBinAddr: 0x10000E764, symSize: 0x4 }
  - { offsetInCU: 0x191B5, offset: 0x5205B, size: 0x8, addend: 0x0, symName: '__ZNKSt3__110__function6__funcIZN10ThreadPool7enqueueIZN36TaskSystemParallelThreadPoolSleeping3runEP9IRunnableiE3$_2JEEEvOT_DpOT0_EUlvE_NS_9allocatorISD_EEFvvEE7__cloneEv', symObjAddr: 0x21B8, symBinAddr: 0x10000E768, symSize: 0x40 }
  - { offsetInCU: 0x194D5, offset: 0x5237B, size: 0x8, addend: 0x0, symName: '__ZNKSt3__110__function6__funcIZN10ThreadPool7enqueueIZN36TaskSystemParallelThreadPoolSleeping3runEP9IRunnableiE3$_2JEEEvOT_DpOT0_EUlvE_NS_9allocatorISD_EEFvvEE7__cloneEPNS0_6__baseISG_EE', symObjAddr: 0x21F8, symBinAddr: 0x10000E7A8, symSize: 0x20 }
  - { offsetInCU: 0x1950D, offset: 0x523B3, size: 0x8, addend: 0x0, symName: '__ZNKSt3__110__function6__funcIZN10ThreadPool7enqueueIZN36TaskSystemParallelThreadPoolSleeping3runEP9IRunnableiE3$_2JEEEvOT_DpOT0_EUlvE_NS_9allocatorISD_EEFvvEE7__cloneEPNS0_6__baseISG_EE', symObjAddr: 0x21F8, symBinAddr: 0x10000E7A8, symSize: 0x20 }
  - { offsetInCU: 0x19532, offset: 0x523D8, size: 0x8, addend: 0x0, symName: '__ZNKSt3__110__function6__funcIZN10ThreadPool7enqueueIZN36TaskSystemParallelThreadPoolSleeping3runEP9IRunnableiE3$_2JEEEvOT_DpOT0_EUlvE_NS_9allocatorISD_EEFvvEE7__cloneEPNS0_6__baseISG_EE', symObjAddr: 0x21F8, symBinAddr: 0x10000E7A8, symSize: 0x20 }
  - { offsetInCU: 0x1961A, offset: 0x524C0, size: 0x8, addend: 0x0, symName: '__ZNSt3__110__function6__funcIZN10ThreadPool7enqueueIZN36TaskSystemParallelThreadPoolSleeping3runEP9IRunnableiE3$_2JEEEvOT_DpOT0_EUlvE_NS_9allocatorISD_EEFvvEE7destroyEv', symObjAddr: 0x2218, symBinAddr: 0x10000E7C8, symSize: 0x4 }
  - { offsetInCU: 0x1966B, offset: 0x52511, size: 0x8, addend: 0x0, symName: '__ZNSt3__110__function6__funcIZN10ThreadPool7enqueueIZN36TaskSystemParallelThreadPoolSleeping3runEP9IRunnableiE3$_2JEEEvOT_DpOT0_EUlvE_NS_9allocatorISD_EEFvvEE18destroy_deallocateEv', symObjAddr: 0x221C, symBinAddr: 0x10000E7CC, symSize: 0x4 }
  - { offsetInCU: 0x196A1, offset: 0x52547, size: 0x8, addend: 0x0, symName: '__ZNSt3__110__function6__funcIZN10ThreadPool7enqueueIZN36TaskSystemParallelThreadPoolSleeping3runEP9IRunnableiE3$_2JEEEvOT_DpOT0_EUlvE_NS_9allocatorISD_EEFvvEE18destroy_deallocateEv', symObjAddr: 0x221C, symBinAddr: 0x10000E7CC, symSize: 0x4 }
  - { offsetInCU: 0x196C3, offset: 0x52569, size: 0x8, addend: 0x0, symName: '__ZNSt3__110__function6__funcIZN10ThreadPool7enqueueIZN36TaskSystemParallelThreadPoolSleeping3runEP9IRunnableiE3$_2JEEEvOT_DpOT0_EUlvE_NS_9allocatorISD_EEFvvEE18destroy_deallocateEv', symObjAddr: 0x221C, symBinAddr: 0x10000E7CC, symSize: 0x4 }
  - { offsetInCU: 0x196EE, offset: 0x52594, size: 0x8, addend: 0x0, symName: '__ZNSt3__110__function6__funcIZN10ThreadPool7enqueueIZN36TaskSystemParallelThreadPoolSleeping3runEP9IRunnableiE3$_2JEEEvOT_DpOT0_EUlvE_NS_9allocatorISD_EEFvvEE18destroy_deallocateEv', symObjAddr: 0x221C, symBinAddr: 0x10000E7CC, symSize: 0x4 }
  - { offsetInCU: 0x19714, offset: 0x525BA, size: 0x8, addend: 0x0, symName: '__ZNSt3__110__function6__funcIZN10ThreadPool7enqueueIZN36TaskSystemParallelThreadPoolSleeping3runEP9IRunnableiE3$_2JEEEvOT_DpOT0_EUlvE_NS_9allocatorISD_EEFvvEE18destroy_deallocateEv', symObjAddr: 0x221C, symBinAddr: 0x10000E7CC, symSize: 0x4 }
  - { offsetInCU: 0x197B8, offset: 0x5265E, size: 0x8, addend: 0x0, symName: '__ZNSt3__110__function6__funcIZN10ThreadPool7enqueueIZN36TaskSystemParallelThreadPoolSleeping3runEP9IRunnableiE3$_2JEEEvOT_DpOT0_EUlvE_NS_9allocatorISD_EEFvvEEclEv', symObjAddr: 0x2220, symBinAddr: 0x10000E7D0, symSize: 0x50 }
  - { offsetInCU: 0x198A3, offset: 0x52749, size: 0x8, addend: 0x0, symName: '__ZNKSt3__110__function6__funcIZN10ThreadPool7enqueueIZN36TaskSystemParallelThreadPoolSleeping3runEP9IRunnableiE3$_2JEEEvOT_DpOT0_EUlvE_NS_9allocatorISD_EEFvvEE6targetERKSt9type_info', symObjAddr: 0x2270, symBinAddr: 0x10000E820, symSize: 0x60 }
  - { offsetInCU: 0x19928, offset: 0x527CE, size: 0x8, addend: 0x0, symName: '__ZNKSt3__110__function6__funcIZN10ThreadPool7enqueueIZN36TaskSystemParallelThreadPoolSleeping3runEP9IRunnableiE3$_2JEEEvOT_DpOT0_EUlvE_NS_9allocatorISD_EEFvvEE11target_typeEv', symObjAddr: 0x22D0, symBinAddr: 0x10000E880, symSize: 0xC }
...
