---
triple:          'arm64-apple-darwin'
binary-path:     runtasks
relocations:
  - { offsetInCU: 0x26, offset: 0x26, size: 0x8, addend: 0x0, symName: __Z8yourTestP11ITaskSystembii, symObjAddr: 0x0, symBinAddr: 0x1000028E4, symSize: 0x188 }
  - { offsetInCU: 0x46, offset: 0x46, size: 0x8, addend: 0x0, symName: _main, symObjAddr: 0x61C8, symBinAddr: 0x100008AAC, symSize: 0x11D8 }
  - { offsetInCU: 0x6B, offset: 0x6B, size: 0x8, addend: 0x0, symName: __ZZ4mainE12long_options, symObjAddr: 0x9448, symBinAddr: 0x100014000, symSize: 0x0 }
  - { offsetInCU: 0x19F50, offset: 0x19F50, size: 0x8, addend: 0x0, symName: __ZNSt3__127__tree_balance_after_insertB8ue170006IPNS_16__tree_node_baseIPvEEEEvT_S5_, symObjAddr: 0x8254, symBinAddr: 0x10000AB38, symSize: 0x1B4 }
  - { offsetInCU: 0x1A7A1, offset: 0x1A7A1, size: 0x8, addend: 0x0, symName: __ZNSt3__120__throw_length_errorB8ue170006EPKc, symObjAddr: 0x7D00, symBinAddr: 0x10000A5E4, symSize: 0x50 }
  - { offsetInCU: 0x1AF9C, offset: 0x1AF9C, size: 0x8, addend: 0x0, symName: __ZSt28__throw_bad_array_new_lengthB8ue170006v, symObjAddr: 0x7D74, symBinAddr: 0x10000A658, symSize: 0x28 }
  - { offsetInCU: 0x1ECBC, offset: 0x1ECBC, size: 0x8, addend: 0x0, symName: __Z8yourTestP11ITaskSystembii, symObjAddr: 0x0, symBinAddr: 0x1000028E4, symSize: 0x188 }
  - { offsetInCU: 0x1F291, offset: 0x1F291, size: 0x8, addend: 0x0, symName: __Z10simpleTestP11ITaskSystemb, symObjAddr: 0x188, symBinAddr: 0x100002A6C, symSize: 0x38C }
  - { offsetInCU: 0x1FE48, offset: 0x1FE48, size: 0x8, addend: 0x0, symName: __ZN18SimpleMultiplyTaskD1Ev, symObjAddr: 0x514, symBinAddr: 0x100002DF8, symSize: 0x4 }
  - { offsetInCU: 0x1FE6A, offset: 0x1FE6A, size: 0x8, addend: 0x0, symName: __ZN18SimpleMultiplyTaskD1Ev, symObjAddr: 0x514, symBinAddr: 0x100002DF8, symSize: 0x4 }
  - { offsetInCU: 0x1FE84, offset: 0x1FE84, size: 0x8, addend: 0x0, symName: __Z14simpleTestSyncP11ITaskSystem, symObjAddr: 0x518, symBinAddr: 0x100002DFC, symSize: 0x8 }
  - { offsetInCU: 0x1FECD, offset: 0x1FECD, size: 0x8, addend: 0x0, symName: __Z15simpleTestAsyncP11ITaskSystem, symObjAddr: 0x520, symBinAddr: 0x100002E04, symSize: 0x8 }
  - { offsetInCU: 0x2016D, offset: 0x2016D, size: 0x8, addend: 0x0, symName: __Z12pingPongTestP11ITaskSystembbii, symObjAddr: 0x528, symBinAddr: 0x100002E0C, symSize: 0x79C }
  - { offsetInCU: 0x20C4A, offset: 0x20C4A, size: 0x8, addend: 0x0, symName: __Z19superSuperLightTestP11ITaskSystem, symObjAddr: 0xCC4, symBinAddr: 0x1000035A8, symSize: 0x14 }
  - { offsetInCU: 0x20CC3, offset: 0x20CC3, size: 0x8, addend: 0x0, symName: __Z24superSuperLightAsyncTestP11ITaskSystem, symObjAddr: 0xCD8, symBinAddr: 0x1000035BC, symSize: 0x14 }
  - { offsetInCU: 0x20D3C, offset: 0x20D3C, size: 0x8, addend: 0x0, symName: __Z14superLightTestP11ITaskSystem, symObjAddr: 0xCEC, symBinAddr: 0x1000035D0, symSize: 0x14 }
  - { offsetInCU: 0x20DB6, offset: 0x20DB6, size: 0x8, addend: 0x0, symName: __Z19superLightAsyncTestP11ITaskSystem, symObjAddr: 0xD00, symBinAddr: 0x1000035E4, symSize: 0x14 }
  - { offsetInCU: 0x20E30, offset: 0x20E30, size: 0x8, addend: 0x0, symName: __Z17pingPongEqualTestP11ITaskSystem, symObjAddr: 0xD14, symBinAddr: 0x1000035F8, symSize: 0x14 }
  - { offsetInCU: 0x20EAA, offset: 0x20EAA, size: 0x8, addend: 0x0, symName: __Z19pingPongUnequalTestP11ITaskSystem, symObjAddr: 0xD28, symBinAddr: 0x10000360C, symSize: 0x14 }
  - { offsetInCU: 0x20F24, offset: 0x20F24, size: 0x8, addend: 0x0, symName: __Z22pingPongEqualAsyncTestP11ITaskSystem, symObjAddr: 0xD3C, symBinAddr: 0x100003620, symSize: 0x14 }
  - { offsetInCU: 0x20F9E, offset: 0x20F9E, size: 0x8, addend: 0x0, symName: __Z24pingPongUnequalAsyncTestP11ITaskSystem, symObjAddr: 0xD50, symBinAddr: 0x100003634, symSize: 0x14 }
  - { offsetInCU: 0x21299, offset: 0x21299, size: 0x8, addend: 0x0, symName: __Z26recursiveFibonacciTestBaseP11ITaskSystemb, symObjAddr: 0xD64, symBinAddr: 0x100003648, symSize: 0xDEC }
  - { offsetInCU: 0x22350, offset: 0x22350, size: 0x8, addend: 0x0, symName: __Z22recursiveFibonacciTestP11ITaskSystem, symObjAddr: 0x1B50, symBinAddr: 0x100004434, symSize: 0x8 }
  - { offsetInCU: 0x22399, offset: 0x22399, size: 0x8, addend: 0x0, symName: __Z27recursiveFibonacciAsyncTestP11ITaskSystem, symObjAddr: 0x1B58, symBinAddr: 0x10000443C, symSize: 0x8 }
  - { offsetInCU: 0x227AC, offset: 0x227AC, size: 0x8, addend: 0x0, symName: __Z36mathOperationsInTightForLoopTestBaseP11ITaskSystemibb, symObjAddr: 0x1B60, symBinAddr: 0x100004444, symSize: 0x488 }
  - { offsetInCU: 0x23435, offset: 0x23435, size: 0x8, addend: 0x0, symName: __ZNSt3__16vectorI32MathOperationsInTightForLoopTaskNS_9allocatorIS1_EEE21__push_back_slow_pathIS1_EEvOT_, symObjAddr: 0x7D9C, symBinAddr: 0x10000A680, symSize: 0x188 }
  - { offsetInCU: 0x23914, offset: 0x23914, size: 0x8, addend: 0x0, symName: __ZNKSt3__16vectorI32MathOperationsInTightForLoopTaskNS_9allocatorIS1_EEE20__throw_length_errorB8ue170006Ev, symObjAddr: 0x7F24, symBinAddr: 0x10000A808, symSize: 0x14 }
  - { offsetInCU: 0x23928, offset: 0x23928, size: 0x8, addend: 0x0, symName: __ZNSt3__16vectorI32MathOperationsInTightForLoopTaskNS_9allocatorIS1_EEED1B8ue170006Ev, symObjAddr: 0x1FEC, symBinAddr: 0x1000048D0, symSize: 0x70 }
  - { offsetInCU: 0x23AC9, offset: 0x23AC9, size: 0x8, addend: 0x0, symName: __ZN32MathOperationsInTightForLoopTaskD1Ev, symObjAddr: 0x1FE8, symBinAddr: 0x1000048CC, symSize: 0x4 }
  - { offsetInCU: 0x23AEB, offset: 0x23AEB, size: 0x8, addend: 0x0, symName: __ZN32MathOperationsInTightForLoopTaskD1Ev, symObjAddr: 0x1FE8, symBinAddr: 0x1000048CC, symSize: 0x4 }
  - { offsetInCU: 0x23B06, offset: 0x23B06, size: 0x8, addend: 0x0, symName: __Z32mathOperationsInTightForLoopTestP11ITaskSystem, symObjAddr: 0x205C, symBinAddr: 0x100004940, symSize: 0x10 }
  - { offsetInCU: 0x23B59, offset: 0x23B59, size: 0x8, addend: 0x0, symName: __Z37mathOperationsInTightForLoopAsyncTestP11ITaskSystem, symObjAddr: 0x206C, symBinAddr: 0x100004950, symSize: 0x10 }
  - { offsetInCU: 0x23BAC, offset: 0x23BAC, size: 0x8, addend: 0x0, symName: __Z42mathOperationsInTightForLoopFewerTasksTestP11ITaskSystem, symObjAddr: 0x207C, symBinAddr: 0x100004960, symSize: 0x10 }
  - { offsetInCU: 0x23BFF, offset: 0x23BFF, size: 0x8, addend: 0x0, symName: __Z47mathOperationsInTightForLoopFewerTasksAsyncTestP11ITaskSystem, symObjAddr: 0x208C, symBinAddr: 0x100004970, symSize: 0x10 }
  - { offsetInCU: 0x23EB9, offset: 0x23EB9, size: 0x8, addend: 0x0, symName: __Z41mathOperationsInTightForLoopFanInTestBaseP11ITaskSystemb, symObjAddr: 0x209C, symBinAddr: 0x100004980, symSize: 0x5F0 }
  - { offsetInCU: 0x250D8, offset: 0x250D8, size: 0x8, addend: 0x0, symName: __ZNKSt3__16vectorIiNS_9allocatorIiEEE20__throw_length_errorB8ue170006Ev, symObjAddr: 0x7CEC, symBinAddr: 0x10000A5D0, symSize: 0x14 }
  - { offsetInCU: 0x25101, offset: 0x25101, size: 0x8, addend: 0x0, symName: __ZNSt3__120__throw_length_errorB8ue170006EPKc, symObjAddr: 0x7D00, symBinAddr: 0x10000A5E4, symSize: 0x50 }
  - { offsetInCU: 0x2510C, offset: 0x2510C, size: 0x8, addend: 0x0, symName: __ZN10ReduceTaskD1Ev, symObjAddr: 0x268C, symBinAddr: 0x100004F70, symSize: 0x4 }
  - { offsetInCU: 0x2512E, offset: 0x2512E, size: 0x8, addend: 0x0, symName: __ZN10ReduceTaskD1Ev, symObjAddr: 0x268C, symBinAddr: 0x100004F70, symSize: 0x4 }
  - { offsetInCU: 0x25149, offset: 0x25149, size: 0x8, addend: 0x0, symName: __Z37mathOperationsInTightForLoopFanInTestP11ITaskSystem, symObjAddr: 0x2690, symBinAddr: 0x100004F74, symSize: 0x8 }
  - { offsetInCU: 0x25192, offset: 0x25192, size: 0x8, addend: 0x0, symName: __Z42mathOperationsInTightForLoopFanInAsyncTestP11ITaskSystem, symObjAddr: 0x2698, symBinAddr: 0x100004F7C, symSize: 0x8 }
  - { offsetInCU: 0x2623F, offset: 0x2623F, size: 0x8, addend: 0x0, symName: __Z49mathOperationsInTightForLoopReductionTreeTestBaseP11ITaskSystemb, symObjAddr: 0x26A0, symBinAddr: 0x100004F84, symSize: 0x13FC }
  - { offsetInCU: 0x2BDD8, offset: 0x2BDD8, size: 0x8, addend: 0x0, symName: __ZNSt3__16vectorINS0_IiNS_9allocatorIiEEEENS1_IS3_EEE24__emplace_back_slow_pathIJRS3_EEEvDpOT_, symObjAddr: 0x7F60, symBinAddr: 0x10000A844, symSize: 0x220 }
  - { offsetInCU: 0x2C89A, offset: 0x2C89A, size: 0x8, addend: 0x0, symName: __ZNKSt3__16vectorI10ReduceTaskNS_9allocatorIS1_EEE20__throw_length_errorB8ue170006Ev, symObjAddr: 0x7F4C, symBinAddr: 0x10000A830, symSize: 0x14 }
  - { offsetInCU: 0x2C8C3, offset: 0x2C8C3, size: 0x8, addend: 0x0, symName: __ZNSt3__16vectorINS0_IiNS_9allocatorIiEEEENS1_IS3_EEE24__emplace_back_slow_pathIJRS3_EEEvDpOT_, symObjAddr: 0x7F60, symBinAddr: 0x10000A844, symSize: 0x220 }
  - { offsetInCU: 0x2C8CE, offset: 0x2C8CE, size: 0x8, addend: 0x0, symName: __ZNKSt3__16vectorIPfNS_9allocatorIS1_EEE20__throw_length_errorB8ue170006Ev, symObjAddr: 0x7F38, symBinAddr: 0x10000A81C, symSize: 0x14 }
  - { offsetInCU: 0x2C8F7, offset: 0x2C8F7, size: 0x8, addend: 0x0, symName: __ZNKSt3__16vectorI10ReduceTaskNS_9allocatorIS1_EEE20__throw_length_errorB8ue170006Ev, symObjAddr: 0x7F4C, symBinAddr: 0x10000A830, symSize: 0x14 }
  - { offsetInCU: 0x2C902, offset: 0x2C902, size: 0x8, addend: 0x0, symName: __ZNSt3__16vectorINS0_IiNS_9allocatorIiEEEENS1_IS3_EEED1B8ue170006Ev, symObjAddr: 0x3A9C, symBinAddr: 0x100006380, symSize: 0x74 }
  - { offsetInCU: 0x2CBC3, offset: 0x2CBC3, size: 0x8, addend: 0x0, symName: __ZNSt3__16vectorI10ReduceTaskNS_9allocatorIS1_EEED1B8ue170006Ev, symObjAddr: 0x3B10, symBinAddr: 0x1000063F4, symSize: 0x70 }
  - { offsetInCU: 0x2CD64, offset: 0x2CD64, size: 0x8, addend: 0x0, symName: __Z45mathOperationsInTightForLoopReductionTreeTestP11ITaskSystem, symObjAddr: 0x3B80, symBinAddr: 0x100006464, symSize: 0x8 }
  - { offsetInCU: 0x2CDAD, offset: 0x2CDAD, size: 0x8, addend: 0x0, symName: __Z50mathOperationsInTightForLoopReductionTreeAsyncTestP11ITaskSystem, symObjAddr: 0x3B88, symBinAddr: 0x10000646C, symSize: 0x8 }
  - { offsetInCU: 0x2CF2B, offset: 0x2CF2B, size: 0x8, addend: 0x0, symName: __Z27spinBetweenRunCallsTestBaseP11ITaskSystemb, symObjAddr: 0x3B90, symBinAddr: 0x100006474, symSize: 0x548 }
  - { offsetInCU: 0x2DE84, offset: 0x2DE84, size: 0x8, addend: 0x0, symName: __ZN22RecursiveFibonacciTaskD1Ev, symObjAddr: 0x40D8, symBinAddr: 0x1000069BC, symSize: 0x4 }
  - { offsetInCU: 0x2DEA6, offset: 0x2DEA6, size: 0x8, addend: 0x0, symName: __ZN22RecursiveFibonacciTaskD1Ev, symObjAddr: 0x40D8, symBinAddr: 0x1000069BC, symSize: 0x4 }
  - { offsetInCU: 0x2DEC0, offset: 0x2DEC0, size: 0x8, addend: 0x0, symName: __ZN9LightTaskD1Ev, symObjAddr: 0x40DC, symBinAddr: 0x1000069C0, symSize: 0x4 }
  - { offsetInCU: 0x2DEE2, offset: 0x2DEE2, size: 0x8, addend: 0x0, symName: __ZN9LightTaskD1Ev, symObjAddr: 0x40DC, symBinAddr: 0x1000069C0, symSize: 0x4 }
  - { offsetInCU: 0x2DEFD, offset: 0x2DEFD, size: 0x8, addend: 0x0, symName: __Z23spinBetweenRunCallsTestP11ITaskSystem, symObjAddr: 0x40E0, symBinAddr: 0x1000069C4, symSize: 0x8 }
  - { offsetInCU: 0x2DF46, offset: 0x2DF46, size: 0x8, addend: 0x0, symName: __Z28spinBetweenRunCallsAsyncTestP11ITaskSystem, symObjAddr: 0x40E8, symBinAddr: 0x1000069CC, symSize: 0x8 }
  - { offsetInCU: 0x2E35F, offset: 0x2E35F, size: 0x8, addend: 0x0, symName: __Z25mandelbrotChunkedTestBaseP11ITaskSystemb, symObjAddr: 0x40F0, symBinAddr: 0x1000069D4, symSize: 0x464 }
  - { offsetInCU: 0x2EA42, offset: 0x2EA42, size: 0x8, addend: 0x0, symName: __ZN14MandelbrotTaskD1Ev, symObjAddr: 0x4554, symBinAddr: 0x100006E38, symSize: 0x4 }
  - { offsetInCU: 0x2EA64, offset: 0x2EA64, size: 0x8, addend: 0x0, symName: __ZN14MandelbrotTaskD1Ev, symObjAddr: 0x4554, symBinAddr: 0x100006E38, symSize: 0x4 }
  - { offsetInCU: 0x2EA7F, offset: 0x2EA7F, size: 0x8, addend: 0x0, symName: __Z21mandelbrotChunkedTestP11ITaskSystem, symObjAddr: 0x4558, symBinAddr: 0x100006E3C, symSize: 0x8 }
  - { offsetInCU: 0x2EAC8, offset: 0x2EAC8, size: 0x8, addend: 0x0, symName: __Z26mandelbrotChunkedAsyncTestP11ITaskSystem, symObjAddr: 0x4560, symBinAddr: 0x100006E44, symSize: 0x8 }
  - { offsetInCU: 0x2EBDE, offset: 0x2EBDE, size: 0x8, addend: 0x0, symName: __Z17simpleRunDepsTestP11ITaskSystem, symObjAddr: 0x4568, symBinAddr: 0x100006E4C, symSize: 0x434 }
  - { offsetInCU: 0x302F6, offset: 0x302F6, size: 0x8, addend: 0x0, symName: __Z21strictDiamondDepsTestP11ITaskSystem, symObjAddr: 0x499C, symBinAddr: 0x100007280, symSize: 0xA40 }
  - { offsetInCU: 0x34497, offset: 0x34497, size: 0x8, addend: 0x0, symName: __Z23strictGraphDepsTestBaseP11ITaskSystemiij, symObjAddr: 0x53DC, symBinAddr: 0x100007CC0, symSize: 0xBF8 }
  - { offsetInCU: 0x3691E, offset: 0x3691E, size: 0x8, addend: 0x0, symName: __ZNSt3__16__treeINS_4pairIiiEENS_4lessIS2_EENS_9allocatorIS2_EEE7destroyEPNS_11__tree_nodeIS2_PvEE, symObjAddr: 0x8214, symBinAddr: 0x10000AAF8, symSize: 0x40 }
  - { offsetInCU: 0x36A54, offset: 0x36A54, size: 0x8, addend: 0x0, symName: __ZNKSt3__16vectorIP9IRunnableNS_9allocatorIS2_EEE20__throw_length_errorB8ue170006Ev, symObjAddr: 0x8408, symBinAddr: 0x10000ACEC, symSize: 0x14 }
  - { offsetInCU: 0x36A7D, offset: 0x36A7D, size: 0x8, addend: 0x0, symName: __ZNKSt3__112basic_stringIcNS_11char_traitsIcEENS_9allocatorIcEEE20__throw_length_errorB8ue170006Ev, symObjAddr: 0x841C, symBinAddr: 0x10000AD00, symSize: 0x14 }
  - { offsetInCU: 0x36A88, offset: 0x36A88, size: 0x8, addend: 0x0, symName: __ZNKSt3__16vectorIPbNS_9allocatorIS1_EEE20__throw_length_errorB8ue170006Ev, symObjAddr: 0x8200, symBinAddr: 0x10000AAE4, symSize: 0x14 }
  - { offsetInCU: 0x36AB1, offset: 0x36AB1, size: 0x8, addend: 0x0, symName: __ZNSt3__16__treeINS_4pairIiiEENS_4lessIS2_EENS_9allocatorIS2_EEE7destroyEPNS_11__tree_nodeIS2_PvEE, symObjAddr: 0x8214, symBinAddr: 0x10000AAF8, symSize: 0x40 }
  - { offsetInCU: 0x36ABC, offset: 0x36ABC, size: 0x8, addend: 0x0, symName: __Z20strictGraphDepsSmallP11ITaskSystem, symObjAddr: 0x5FD4, symBinAddr: 0x1000088B8, symSize: 0x10 }
  - { offsetInCU: 0x36B0F, offset: 0x36B0F, size: 0x8, addend: 0x0, symName: __Z21strictGraphDepsMediumP11ITaskSystem, symObjAddr: 0x5FE4, symBinAddr: 0x1000088C8, symSize: 0x10 }
  - { offsetInCU: 0x36B65, offset: 0x36B65, size: 0x8, addend: 0x0, symName: __Z20strictGraphDepsLargeP11ITaskSystem, symObjAddr: 0x5FF4, symBinAddr: 0x1000088D8, symSize: 0x10 }
  - { offsetInCU: 0x36C30, offset: 0x36C30, size: 0x8, addend: 0x0, symName: __Z5usagePKcPNSt3__112basic_stringIcNS1_11char_traitsIcEENS1_9allocatorIcEEEEi, symObjAddr: 0x6004, symBinAddr: 0x1000088E8, symSize: 0xE4 }
  - { offsetInCU: 0x36D25, offset: 0x36D25, size: 0x8, addend: 0x0, symName: __Z23selectTaskSystemRefImpli14TaskSystemType, symObjAddr: 0x60E8, symBinAddr: 0x1000089CC, symSize: 0xE0 }
  - { offsetInCU: 0x36D59, offset: 0x36D59, size: 0x8, addend: 0x0, symName: __Z23selectTaskSystemRefImpli14TaskSystemType.cold.1, symObjAddr: 0x8430, symBinAddr: 0x10000E790, symSize: 0x28 }
  - { offsetInCU: 0x372E8, offset: 0x372E8, size: 0x8, addend: 0x0, symName: __ZNKSt3__112basic_stringIcNS_11char_traitsIcEENS_9allocatorIcEEE20__throw_length_errorB8ue170006Ev, symObjAddr: 0x841C, symBinAddr: 0x10000AD00, symSize: 0x14 }
  - { offsetInCU: 0x37311, offset: 0x37311, size: 0x8, addend: 0x0, symName: __Z23selectTaskSystemRefImpli14TaskSystemType.cold.1, symObjAddr: 0x8430, symBinAddr: 0x10000E790, symSize: 0x28 }
  - { offsetInCU: 0x3731C, offset: 0x3731C, size: 0x8, addend: 0x0, symName: __ZN18SimpleMultiplyTaskD0Ev, symObjAddr: 0x73A0, symBinAddr: 0x100009C84, symSize: 0x14 }
  - { offsetInCU: 0x373B3, offset: 0x373B3, size: 0x8, addend: 0x0, symName: __ZN18SimpleMultiplyTask7runTaskEii, symObjAddr: 0x73B4, symBinAddr: 0x100009C98, symSize: 0xBC }
  - { offsetInCU: 0x3748F, offset: 0x3748F, size: 0x8, addend: 0x0, symName: __ZN12PingPongTaskD1Ev, symObjAddr: 0x7470, symBinAddr: 0x100009D54, symSize: 0x4 }
  - { offsetInCU: 0x374B1, offset: 0x374B1, size: 0x8, addend: 0x0, symName: __ZN12PingPongTaskD1Ev, symObjAddr: 0x7470, symBinAddr: 0x100009D54, symSize: 0x4 }
  - { offsetInCU: 0x374E5, offset: 0x374E5, size: 0x8, addend: 0x0, symName: __ZN12PingPongTaskD0Ev, symObjAddr: 0x7474, symBinAddr: 0x100009D58, symSize: 0x14 }
  - { offsetInCU: 0x3757A, offset: 0x3757A, size: 0x8, addend: 0x0, symName: __ZN12PingPongTask7runTaskEii, symObjAddr: 0x7488, symBinAddr: 0x100009D6C, symSize: 0x1EC }
  - { offsetInCU: 0x376F6, offset: 0x376F6, size: 0x8, addend: 0x0, symName: __ZN22RecursiveFibonacciTaskD0Ev, symObjAddr: 0x7674, symBinAddr: 0x100009F58, symSize: 0x14 }
  - { offsetInCU: 0x37757, offset: 0x37757, size: 0x8, addend: 0x0, symName: __ZN22RecursiveFibonacciTask7runTaskEii, symObjAddr: 0x7688, symBinAddr: 0x100009F6C, symSize: 0x30 }
  - { offsetInCU: 0x377B1, offset: 0x377B1, size: 0x8, addend: 0x0, symName: __ZN22RecursiveFibonacciTask6slowFnEi, symObjAddr: 0x76B8, symBinAddr: 0x100009F9C, symSize: 0x5C }
  - { offsetInCU: 0x37801, offset: 0x37801, size: 0x8, addend: 0x0, symName: __ZN32MathOperationsInTightForLoopTaskD0Ev, symObjAddr: 0x7714, symBinAddr: 0x100009FF8, symSize: 0x14 }
  - { offsetInCU: 0x37864, offset: 0x37864, size: 0x8, addend: 0x0, symName: __ZN32MathOperationsInTightForLoopTask7runTaskEii, symObjAddr: 0x7728, symBinAddr: 0x10000A00C, symSize: 0x148 }
  - { offsetInCU: 0x37943, offset: 0x37943, size: 0x8, addend: 0x0, symName: __ZN10ReduceTaskD0Ev, symObjAddr: 0x7870, symBinAddr: 0x10000A154, symSize: 0x14 }
  - { offsetInCU: 0x379A9, offset: 0x379A9, size: 0x8, addend: 0x0, symName: __ZN10ReduceTask7runTaskEii, symObjAddr: 0x7884, symBinAddr: 0x10000A168, symSize: 0x70 }
  - { offsetInCU: 0x37A16, offset: 0x37A16, size: 0x8, addend: 0x0, symName: __ZN9LightTaskD0Ev, symObjAddr: 0x78F4, symBinAddr: 0x10000A1D8, symSize: 0x14 }
  - { offsetInCU: 0x37A79, offset: 0x37A79, size: 0x8, addend: 0x0, symName: __ZN9LightTask7runTaskEii, symObjAddr: 0x7908, symBinAddr: 0x10000A1EC, symSize: 0xC }
  - { offsetInCU: 0x37ABA, offset: 0x37ABA, size: 0x8, addend: 0x0, symName: __ZN14MandelbrotTaskD0Ev, symObjAddr: 0x7914, symBinAddr: 0x10000A1F8, symSize: 0x14 }
  - { offsetInCU: 0x37C1D, offset: 0x37C1D, size: 0x8, addend: 0x0, symName: __ZN14MandelbrotTask7runTaskEii, symObjAddr: 0x7928, symBinAddr: 0x10000A20C, symSize: 0x25C }
  - { offsetInCU: 0x37EC4, offset: 0x37EC4, size: 0x8, addend: 0x0, symName: __ZN9SleepTaskD1Ev, symObjAddr: 0x7B84, symBinAddr: 0x10000A468, symSize: 0x4 }
  - { offsetInCU: 0x37EE6, offset: 0x37EE6, size: 0x8, addend: 0x0, symName: __ZN9SleepTaskD1Ev, symObjAddr: 0x7B84, symBinAddr: 0x10000A468, symSize: 0x4 }
  - { offsetInCU: 0x37F1B, offset: 0x37F1B, size: 0x8, addend: 0x0, symName: __ZN9SleepTaskD0Ev, symObjAddr: 0x7B88, symBinAddr: 0x10000A46C, symSize: 0x14 }
  - { offsetInCU: 0x37FF4, offset: 0x37FF4, size: 0x8, addend: 0x0, symName: __ZN9SleepTask7runTaskEii, symObjAddr: 0x7B9C, symBinAddr: 0x10000A480, symSize: 0x60 }
  - { offsetInCU: 0x380F8, offset: 0x380F8, size: 0x8, addend: 0x0, symName: __ZN20StrictDependencyTaskD1Ev, symObjAddr: 0x7BFC, symBinAddr: 0x10000A4E0, symSize: 0x4 }
  - { offsetInCU: 0x3811A, offset: 0x3811A, size: 0x8, addend: 0x0, symName: __ZN20StrictDependencyTaskD1Ev, symObjAddr: 0x7BFC, symBinAddr: 0x10000A4E0, symSize: 0x4 }
  - { offsetInCU: 0x3814F, offset: 0x3814F, size: 0x8, addend: 0x0, symName: __ZN20StrictDependencyTaskD0Ev, symObjAddr: 0x7C00, symBinAddr: 0x10000A4E4, symSize: 0x14 }
  - { offsetInCU: 0x3829C, offset: 0x3829C, size: 0x8, addend: 0x0, symName: __ZN20StrictDependencyTask7runTaskEii, symObjAddr: 0x7C14, symBinAddr: 0x10000A4F8, symSize: 0xD8 }
  - { offsetInCU: 0x384DD, offset: 0x384DD, size: 0x8, addend: 0x0, symName: __ZNSt12length_errorC1B8ue170006EPKc, symObjAddr: 0x7D50, symBinAddr: 0x10000A634, symSize: 0x24 }
  - { offsetInCU: 0x38768, offset: 0x38768, size: 0x8, addend: 0x0, symName: __ZNKSt3__16vectorI32MathOperationsInTightForLoopTaskNS_9allocatorIS1_EEE20__throw_length_errorB8ue170006Ev, symObjAddr: 0x7F24, symBinAddr: 0x10000A808, symSize: 0x14 }
  - { offsetInCU: 0x38791, offset: 0x38791, size: 0x8, addend: 0x0, symName: __ZNKSt3__16vectorIPfNS_9allocatorIS1_EEE20__throw_length_errorB8ue170006Ev, symObjAddr: 0x7F38, symBinAddr: 0x10000A81C, symSize: 0x14 }
  - { offsetInCU: 0x38AE9, offset: 0x38AE9, size: 0x8, addend: 0x0, symName: __ZNKSt3__16vectorINS0_IiNS_9allocatorIiEEEENS1_IS3_EEE20__throw_length_errorB8ue170006Ev, symObjAddr: 0x81EC, symBinAddr: 0x10000AAD0, symSize: 0x14 }
  - { offsetInCU: 0x38B12, offset: 0x38B12, size: 0x8, addend: 0x0, symName: __ZNKSt3__16vectorIPbNS_9allocatorIS1_EEE20__throw_length_errorB8ue170006Ev, symObjAddr: 0x8200, symBinAddr: 0x10000AAE4, symSize: 0x14 }
  - { offsetInCU: 0x38B1D, offset: 0x38B1D, size: 0x8, addend: 0x0, symName: __ZNSt3__114__split_bufferINS_6vectorIiNS_9allocatorIiEEEERNS2_IS4_EEED1Ev, symObjAddr: 0x8180, symBinAddr: 0x10000AA64, symSize: 0x6C }
  - { offsetInCU: 0x5D, offset: 0x38F2D, size: 0x8, addend: 0x0, symName: __ZNSt3__1L19piecewise_constructE, symObjAddr: 0x4159, symBinAddr: 0x10000EC83, symSize: 0x0 }
  - { offsetInCU: 0x127C9, offset: 0x4B699, size: 0x8, addend: 0x0, symName: __ZNSt3__125__throw_bad_function_callB8ue170006Ev, symObjAddr: 0x2F90, symBinAddr: 0x10000DC08, symSize: 0x34 }
  - { offsetInCU: 0x13898, offset: 0x4C768, size: 0x8, addend: 0x0, symName: __ZNSt3__114__thread_proxyB8ue170006INS_5tupleIJNS_10unique_ptrINS_15__thread_structENS_14default_deleteIS3_EEEEM18ThreadPoolWithDepsFvvEPS7_EEEEEPvSC_, symObjAddr: 0x32F4, symBinAddr: 0x10000DF6C, symSize: 0x8C }
  - { offsetInCU: 0x15F33, offset: 0x4EE03, size: 0x8, addend: 0x0, symName: __ZN36TaskSystemParallelThreadPoolSleeping16runAsyncWithDepsEP9IRunnableiRKNSt3__16vectorIiNS2_9allocatorIiEEEE, symObjAddr: 0x548, symBinAddr: 0x10000B25C, symSize: 0x528 }
  - { offsetInCU: 0x19458, offset: 0x52328, size: 0x8, addend: 0x0, symName: __ZN9IRunnableD2Ev, symObjAddr: 0x0, symBinAddr: 0x10000AD14, symSize: 0x4 }
  - { offsetInCU: 0x19483, offset: 0x52353, size: 0x8, addend: 0x0, symName: __ZN9IRunnableD1Ev, symObjAddr: 0x4, symBinAddr: 0x10000AD18, symSize: 0x4 }
  - { offsetInCU: 0x194AC, offset: 0x5237C, size: 0x8, addend: 0x0, symName: __ZN9IRunnableD0Ev, symObjAddr: 0x8, symBinAddr: 0x10000AD1C, symSize: 0x4 }
  - { offsetInCU: 0x194D5, offset: 0x523A5, size: 0x8, addend: 0x0, symName: __ZN11ITaskSystemC2Ei, symObjAddr: 0xC, symBinAddr: 0x10000AD20, symSize: 0x10 }
  - { offsetInCU: 0x1950E, offset: 0x523DE, size: 0x8, addend: 0x0, symName: __ZN11ITaskSystemD2Ev, symObjAddr: 0x1C, symBinAddr: 0x10000AD30, symSize: 0x4 }
  - { offsetInCU: 0x19539, offset: 0x52409, size: 0x8, addend: 0x0, symName: __ZN11ITaskSystemD1Ev, symObjAddr: 0x20, symBinAddr: 0x10000AD34, symSize: 0x4 }
  - { offsetInCU: 0x19562, offset: 0x52432, size: 0x8, addend: 0x0, symName: __ZN11ITaskSystemD0Ev, symObjAddr: 0x24, symBinAddr: 0x10000AD38, symSize: 0x4 }
  - { offsetInCU: 0x19659, offset: 0x52529, size: 0x8, addend: 0x0, symName: __ZN16TaskSystemSerial4nameEv, symObjAddr: 0x28, symBinAddr: 0x10000AD3C, symSize: 0xC }
  - { offsetInCU: 0x1967E, offset: 0x5254E, size: 0x8, addend: 0x0, symName: __ZN16TaskSystemSerialC2Ei, symObjAddr: 0x34, symBinAddr: 0x10000AD48, symSize: 0x10 }
  - { offsetInCU: 0x196D1, offset: 0x525A1, size: 0x8, addend: 0x0, symName: __ZN16TaskSystemSerialC1Ei, symObjAddr: 0x44, symBinAddr: 0x10000AD58, symSize: 0x10 }
  - { offsetInCU: 0x1970C, offset: 0x525DC, size: 0x8, addend: 0x0, symName: __ZN16TaskSystemSerialC1Ei, symObjAddr: 0x44, symBinAddr: 0x10000AD58, symSize: 0x10 }
  - { offsetInCU: 0x1972D, offset: 0x525FD, size: 0x8, addend: 0x0, symName: __ZN16TaskSystemSerialD2Ev, symObjAddr: 0x54, symBinAddr: 0x10000AD68, symSize: 0x4 }
  - { offsetInCU: 0x19758, offset: 0x52628, size: 0x8, addend: 0x0, symName: __ZN16TaskSystemSerialD1Ev, symObjAddr: 0x58, symBinAddr: 0x10000AD6C, symSize: 0x4 }
  - { offsetInCU: 0x19783, offset: 0x52653, size: 0x8, addend: 0x0, symName: __ZN16TaskSystemSerialD0Ev, symObjAddr: 0x5C, symBinAddr: 0x10000AD70, symSize: 0x4 }
  - { offsetInCU: 0x197AE, offset: 0x5267E, size: 0x8, addend: 0x0, symName: __ZN16TaskSystemSerial3runEP9IRunnablei, symObjAddr: 0x60, symBinAddr: 0x10000AD74, symSize: 0x58 }
  - { offsetInCU: 0x1982C, offset: 0x526FC, size: 0x8, addend: 0x0, symName: __ZN16TaskSystemSerial16runAsyncWithDepsEP9IRunnableiRKNSt3__16vectorIiNS2_9allocatorIiEEEE, symObjAddr: 0xB8, symBinAddr: 0x10000ADCC, symSize: 0x5C }
  - { offsetInCU: 0x198B5, offset: 0x52785, size: 0x8, addend: 0x0, symName: __ZN16TaskSystemSerial4syncEv, symObjAddr: 0x114, symBinAddr: 0x10000AE28, symSize: 0x4 }
  - { offsetInCU: 0x199A8, offset: 0x52878, size: 0x8, addend: 0x0, symName: __ZN23TaskSystemParallelSpawn4nameEv, symObjAddr: 0x118, symBinAddr: 0x10000AE2C, symSize: 0xC }
  - { offsetInCU: 0x199CD, offset: 0x5289D, size: 0x8, addend: 0x0, symName: __ZN23TaskSystemParallelSpawnC2Ei, symObjAddr: 0x124, symBinAddr: 0x10000AE38, symSize: 0x10 }
  - { offsetInCU: 0x19A20, offset: 0x528F0, size: 0x8, addend: 0x0, symName: __ZN23TaskSystemParallelSpawnC1Ei, symObjAddr: 0x134, symBinAddr: 0x10000AE48, symSize: 0x10 }
  - { offsetInCU: 0x19A5B, offset: 0x5292B, size: 0x8, addend: 0x0, symName: __ZN23TaskSystemParallelSpawnC1Ei, symObjAddr: 0x134, symBinAddr: 0x10000AE48, symSize: 0x10 }
  - { offsetInCU: 0x19A7C, offset: 0x5294C, size: 0x8, addend: 0x0, symName: __ZN23TaskSystemParallelSpawnD2Ev, symObjAddr: 0x144, symBinAddr: 0x10000AE58, symSize: 0x4 }
  - { offsetInCU: 0x19AA7, offset: 0x52977, size: 0x8, addend: 0x0, symName: __ZN23TaskSystemParallelSpawnD1Ev, symObjAddr: 0x148, symBinAddr: 0x10000AE5C, symSize: 0x4 }
  - { offsetInCU: 0x19AD2, offset: 0x529A2, size: 0x8, addend: 0x0, symName: __ZN23TaskSystemParallelSpawnD0Ev, symObjAddr: 0x14C, symBinAddr: 0x10000AE60, symSize: 0x4 }
  - { offsetInCU: 0x19AFD, offset: 0x529CD, size: 0x8, addend: 0x0, symName: __ZN23TaskSystemParallelSpawn3runEP9IRunnablei, symObjAddr: 0x150, symBinAddr: 0x10000AE64, symSize: 0x58 }
  - { offsetInCU: 0x19B7B, offset: 0x52A4B, size: 0x8, addend: 0x0, symName: __ZN23TaskSystemParallelSpawn16runAsyncWithDepsEP9IRunnableiRKNSt3__16vectorIiNS2_9allocatorIiEEEE, symObjAddr: 0x1A8, symBinAddr: 0x10000AEBC, symSize: 0x5C }
  - { offsetInCU: 0x19C04, offset: 0x52AD4, size: 0x8, addend: 0x0, symName: __ZN23TaskSystemParallelSpawn4syncEv, symObjAddr: 0x204, symBinAddr: 0x10000AF18, symSize: 0x4 }
  - { offsetInCU: 0x19CF7, offset: 0x52BC7, size: 0x8, addend: 0x0, symName: __ZN36TaskSystemParallelThreadPoolSpinning4nameEv, symObjAddr: 0x208, symBinAddr: 0x10000AF1C, symSize: 0xC }
  - { offsetInCU: 0x19D1C, offset: 0x52BEC, size: 0x8, addend: 0x0, symName: __ZN36TaskSystemParallelThreadPoolSpinningC2Ei, symObjAddr: 0x214, symBinAddr: 0x10000AF28, symSize: 0x10 }
  - { offsetInCU: 0x19D6F, offset: 0x52C3F, size: 0x8, addend: 0x0, symName: __ZN36TaskSystemParallelThreadPoolSpinningC1Ei, symObjAddr: 0x224, symBinAddr: 0x10000AF38, symSize: 0x10 }
  - { offsetInCU: 0x19DAA, offset: 0x52C7A, size: 0x8, addend: 0x0, symName: __ZN36TaskSystemParallelThreadPoolSpinningC1Ei, symObjAddr: 0x224, symBinAddr: 0x10000AF38, symSize: 0x10 }
  - { offsetInCU: 0x19DCB, offset: 0x52C9B, size: 0x8, addend: 0x0, symName: __ZN36TaskSystemParallelThreadPoolSpinningD2Ev, symObjAddr: 0x234, symBinAddr: 0x10000AF48, symSize: 0x4 }
  - { offsetInCU: 0x19DF6, offset: 0x52CC6, size: 0x8, addend: 0x0, symName: __ZN36TaskSystemParallelThreadPoolSpinningD1Ev, symObjAddr: 0x238, symBinAddr: 0x10000AF4C, symSize: 0x4 }
  - { offsetInCU: 0x19E21, offset: 0x52CF1, size: 0x8, addend: 0x0, symName: __ZN36TaskSystemParallelThreadPoolSpinningD0Ev, symObjAddr: 0x23C, symBinAddr: 0x10000AF50, symSize: 0x4 }
  - { offsetInCU: 0x19E4C, offset: 0x52D1C, size: 0x8, addend: 0x0, symName: __ZN36TaskSystemParallelThreadPoolSpinning3runEP9IRunnablei, symObjAddr: 0x240, symBinAddr: 0x10000AF54, symSize: 0x58 }
  - { offsetInCU: 0x19ECA, offset: 0x52D9A, size: 0x8, addend: 0x0, symName: __ZN36TaskSystemParallelThreadPoolSpinning16runAsyncWithDepsEP9IRunnableiRKNSt3__16vectorIiNS2_9allocatorIiEEEE, symObjAddr: 0x298, symBinAddr: 0x10000AFAC, symSize: 0x5C }
  - { offsetInCU: 0x19F53, offset: 0x52E23, size: 0x8, addend: 0x0, symName: __ZN36TaskSystemParallelThreadPoolSpinning4syncEv, symObjAddr: 0x2F4, symBinAddr: 0x10000B008, symSize: 0x4 }
  - { offsetInCU: 0x19F78, offset: 0x52E48, size: 0x8, addend: 0x0, symName: __ZN36TaskSystemParallelThreadPoolSleeping4nameEv, symObjAddr: 0x2F8, symBinAddr: 0x10000B00C, symSize: 0xC }
  - { offsetInCU: 0x1A0E0, offset: 0x52FB0, size: 0x8, addend: 0x0, symName: __ZN36TaskSystemParallelThreadPoolSleepingC2Ei, symObjAddr: 0x304, symBinAddr: 0x10000B018, symSize: 0x80 }
  - { offsetInCU: 0x1A1DF, offset: 0x530AF, size: 0x8, addend: 0x0, symName: __ZN18ThreadPoolWithDepsC2Em, symObjAddr: 0xB88, symBinAddr: 0x10000B89C, symSize: 0x2B4 }
  - { offsetInCU: 0x1ACAB, offset: 0x53B7B, size: 0x8, addend: 0x0, symName: __ZN36TaskSystemParallelThreadPoolSleepingC1Ei, symObjAddr: 0x384, symBinAddr: 0x10000B098, symSize: 0x80 }
  - { offsetInCU: 0x1AE7C, offset: 0x53D4C, size: 0x8, addend: 0x0, symName: __ZN36TaskSystemParallelThreadPoolSleepingD2Ev, symObjAddr: 0x404, symBinAddr: 0x10000B118, symSize: 0x44 }
  - { offsetInCU: 0x1AF54, offset: 0x53E24, size: 0x8, addend: 0x0, symName: __ZN18ThreadPoolWithDepsD2Ev, symObjAddr: 0x3708, symBinAddr: 0x10000E36C, symSize: 0x1B8 }
  - { offsetInCU: 0x1BBDF, offset: 0x54AAF, size: 0x8, addend: 0x0, symName: __ZN36TaskSystemParallelThreadPoolSleepingD1Ev, symObjAddr: 0x448, symBinAddr: 0x10000B15C, symSize: 0x44 }
  - { offsetInCU: 0x1BCEF, offset: 0x54BBF, size: 0x8, addend: 0x0, symName: __ZN36TaskSystemParallelThreadPoolSleepingD0Ev, symObjAddr: 0x48C, symBinAddr: 0x10000B1A0, symSize: 0x44 }
  - { offsetInCU: 0x1BF33, offset: 0x54E03, size: 0x8, addend: 0x0, symName: __ZN36TaskSystemParallelThreadPoolSleeping3runEP9IRunnablei, symObjAddr: 0x4D0, symBinAddr: 0x10000B1E4, symSize: 0x78 }
  - { offsetInCU: 0x1D6B8, offset: 0x56588, size: 0x8, addend: 0x0, symName: __ZN18ThreadPoolWithDeps7setDepsEiRKNSt3__16vectorIiNS0_9allocatorIiEEEE, symObjAddr: 0xA70, symBinAddr: 0x10000B784, symSize: 0xA8 }
  - { offsetInCU: 0x1D8AA, offset: 0x5677A, size: 0x8, addend: 0x0, symName: __ZNSt3__15dequeINS_4pairIiNS_8functionIFvvEEEEENS_9allocatorIS5_EEE19__add_back_capacityEv, symObjAddr: 0x1F8C, symBinAddr: 0x10000CC04, symSize: 0x5A8 }
  - { offsetInCU: 0x1E997, offset: 0x57867, size: 0x8, addend: 0x0, symName: __ZNSt3__112__hash_tableINS_17__hash_value_typeIiiEENS_22__unordered_map_hasherIiS2_NS_4hashIiEENS_8equal_toIiEELb1EEENS_21__unordered_map_equalIiS2_S7_S5_Lb1EEENS_9allocatorIS2_EEE25__emplace_unique_key_argsIiJRKNS_21piecewise_construct_tENS_5tupleIJRKiEEENSI_IJEEEEEENS_4pairINS_15__hash_iteratorIPNS_11__hash_nodeIS2_PvEEEEbEERKT_DpOT0_, symObjAddr: 0x2860, symBinAddr: 0x10000D4D8, symSize: 0x314 }
  - { offsetInCU: 0x1F038, offset: 0x57F08, size: 0x8, addend: 0x0, symName: __ZNKSt3__16vectorINS_4pairIiNS_8functionIFvvEEEEENS_9allocatorIS5_EEE20__throw_length_errorB8ue170006Ev, symObjAddr: 0x3B18, symBinAddr: 0x10000E77C, symSize: 0x14 }
  - { offsetInCU: 0x1F191, offset: 0x58061, size: 0x8, addend: 0x0, symName: __ZNSt3__112__hash_tableINS_17__hash_value_typeIiNS_6vectorIiNS_9allocatorIiEEEEEENS_22__unordered_map_hasherIiS6_NS_4hashIiEENS_8equal_toIiEELb1EEENS_21__unordered_map_equalIiS6_SB_S9_Lb1EEENS3_IS6_EEE25__emplace_unique_key_argsIiJRKNS_21piecewise_construct_tENS_5tupleIJRKiEEENSL_IJEEEEEENS_4pairINS_15__hash_iteratorIPNS_11__hash_nodeIS6_PvEEEEbEERKT_DpOT0_, symObjAddr: 0x1A6C, symBinAddr: 0x10000C6E4, symSize: 0x328 }
  - { offsetInCU: 0x1F862, offset: 0x58732, size: 0x8, addend: 0x0, symName: __ZNSt3__16vectorIiNS_9allocatorIiEEE18__assign_with_sizeB8ue170006IPiS5_EEvT_T0_l, symObjAddr: 0x35B0, symBinAddr: 0x10000E228, symSize: 0x144 }
  - { offsetInCU: 0x2038B, offset: 0x5925B, size: 0x8, addend: 0x0, symName: __ZN36TaskSystemParallelThreadPoolSleeping4syncEv, symObjAddr: 0xB18, symBinAddr: 0x10000B82C, symSize: 0x70 }
  - { offsetInCU: 0x20D7C, offset: 0x59C4C, size: 0x8, addend: 0x0, symName: __ZNSt3__16threadC2IM18ThreadPoolWithDepsFvvEJPS2_EvEEOT_DpOT0_, symObjAddr: 0x3224, symBinAddr: 0x10000DE9C, symSize: 0xD0 }
  - { offsetInCU: 0x21133, offset: 0x5A003, size: 0x8, addend: 0x0, symName: __ZNKSt3__16vectorINS_6threadENS_9allocatorIS1_EEE20__throw_length_errorB8ue170006Ev, symObjAddr: 0x16A8, symBinAddr: 0x10000C3BC, symSize: 0x14 }
  - { offsetInCU: 0x21167, offset: 0x5A037, size: 0x8, addend: 0x0, symName: __ZNSt3__113unordered_mapIiNS_6vectorIiNS_9allocatorIiEEEENS_4hashIiEENS_8equal_toIiEENS2_INS_4pairIKiS4_EEEEED1B8ue170006Ev, symObjAddr: 0x1504, symBinAddr: 0x10000C218, symSize: 0x68 }
  - { offsetInCU: 0x215BE, offset: 0x5A48E, size: 0x8, addend: 0x0, symName: __ZNSt3__16vectorINS_4pairIiNS_8functionIFvvEEEEENS_9allocatorIS5_EEED1B8ue170006Ev, symObjAddr: 0x156C, symBinAddr: 0x10000C280, symSize: 0x90 }
  - { offsetInCU: 0x217D0, offset: 0x5A6A0, size: 0x8, addend: 0x0, symName: __ZNSt3__113unordered_mapIiiNS_4hashIiEENS_8equal_toIiEENS_9allocatorINS_4pairIKiiEEEEED1B8ue170006Ev, symObjAddr: 0x15FC, symBinAddr: 0x10000C310, symSize: 0x48 }
  - { offsetInCU: 0x21A9E, offset: 0x5A96E, size: 0x8, addend: 0x0, symName: __ZNSt3__15dequeINS_4pairIiNS_8functionIFvvEEEEENS_9allocatorIS5_EEED2B8ue170006Ev, symObjAddr: 0x33FC, symBinAddr: 0x10000E074, symSize: 0x1B4 }
  - { offsetInCU: 0x22059, offset: 0x5AF29, size: 0x8, addend: 0x0, symName: __ZNSt3__16vectorINS_6threadENS_9allocatorIS1_EEED1B8ue170006Ev, symObjAddr: 0x1644, symBinAddr: 0x10000C358, symSize: 0x58 }
  - { offsetInCU: 0x2231B, offset: 0x5B1EB, size: 0x8, addend: 0x0, symName: __ZN18ThreadPoolWithDeps6workerEv, symObjAddr: 0xE3C, symBinAddr: 0x10000BB50, symSize: 0x6C8 }
  - { offsetInCU: 0x237F1, offset: 0x5C6C1, size: 0x8, addend: 0x0, symName: __ZN18ThreadPoolWithDeps9checkDepsEi, symObjAddr: 0x1758, symBinAddr: 0x10000C3D0, symSize: 0x314 }
  - { offsetInCU: 0x23CEE, offset: 0x5CBBE, size: 0x8, addend: 0x0, symName: __ZNSt3__112__hash_tableINS_17__hash_value_typeIiNS_6vectorIiNS_9allocatorIiEEEEEENS_22__unordered_map_hasherIiS6_NS_4hashIiEENS_8equal_toIiEELb1EEENS_21__unordered_map_equalIiS6_SB_S9_Lb1EEENS3_IS6_EEE14__erase_uniqueIiEEmRKT_, symObjAddr: 0x2D20, symBinAddr: 0x10000D998, symSize: 0x13C }
  - { offsetInCU: 0x241B1, offset: 0x5D081, size: 0x8, addend: 0x0, symName: __ZNSt3__112__hash_tableINS_17__hash_value_typeIiiEENS_22__unordered_map_hasherIiS2_NS_4hashIiEENS_8equal_toIiEELb1EEENS_21__unordered_map_equalIiS2_S7_S5_Lb1EEENS_9allocatorIS2_EEE14__erase_uniqueIiEEmRKT_, symObjAddr: 0x2FDC, symBinAddr: 0x10000DC54, symSize: 0x114 }
  - { offsetInCU: 0x2502C, offset: 0x5DEFC, size: 0x8, addend: 0x0, symName: __ZNSt3__112__hash_tableINS_17__hash_value_typeIiNS_6vectorIiNS_9allocatorIiEEEEEENS_22__unordered_map_hasherIiS6_NS_4hashIiEENS_8equal_toIiEELb1EEENS_21__unordered_map_equalIiS6_SB_S9_Lb1EEENS3_IS6_EEE11__do_rehashILb1EEEvm, symObjAddr: 0x1DE0, symBinAddr: 0x10000CA58, symSize: 0x1AC }
  - { offsetInCU: 0x2547E, offset: 0x5E34E, size: 0x8, addend: 0x0, symName: __ZNSt3__15dequeINS_4pairIiNS_8functionIFvvEEEEENS_9allocatorIS5_EEE19__add_back_capacityEv, symObjAddr: 0x1F8C, symBinAddr: 0x10000CC04, symSize: 0x5A8 }
  - { offsetInCU: 0x25492, offset: 0x5E362, size: 0x8, addend: 0x0, symName: __ZNSt3__110unique_ptrINS_11__hash_nodeINS_17__hash_value_typeIiNS_6vectorIiNS_9allocatorIiEEEEEEPvEENS_22__hash_node_destructorINS4_IS9_EEEEED1B8ue170006Ev, symObjAddr: 0x1D94, symBinAddr: 0x10000CA0C, symSize: 0x4C }
  - { offsetInCU: 0x25DE1, offset: 0x5ECB1, size: 0x8, addend: 0x0, symName: __ZNSt3__114__split_bufferIPNS_4pairIiNS_8functionIFvvEEEEENS_9allocatorIS6_EEE9push_backEOS6_, symObjAddr: 0x2534, symBinAddr: 0x10000D1AC, symSize: 0x190 }
  - { offsetInCU: 0x26288, offset: 0x5F158, size: 0x8, addend: 0x0, symName: __ZNSt3__114__split_bufferIPNS_4pairIiNS_8functionIFvvEEEEENS_9allocatorIS6_EEE10push_frontEOS6_, symObjAddr: 0x26C4, symBinAddr: 0x10000D33C, symSize: 0x19C }
  - { offsetInCU: 0x26292, offset: 0x5F162, size: 0x8, addend: 0x0, symName: __ZNSt3__114__split_bufferIPNS_4pairIiNS_8functionIFvvEEEEENS_9allocatorIS6_EEE10push_frontEOS6_, symObjAddr: 0x26C4, symBinAddr: 0x10000D33C, symSize: 0x19C }
  - { offsetInCU: 0x26718, offset: 0x5F5E8, size: 0x8, addend: 0x0, symName: __ZNSt3__112__hash_tableINS_17__hash_value_typeIiiEENS_22__unordered_map_hasherIiS2_NS_4hashIiEENS_8equal_toIiEELb1EEENS_21__unordered_map_equalIiS2_S7_S5_Lb1EEENS_9allocatorIS2_EEE25__emplace_unique_key_argsIiJRKNS_21piecewise_construct_tENS_5tupleIJRKiEEENSI_IJEEEEEENS_4pairINS_15__hash_iteratorIPNS_11__hash_nodeIS2_PvEEEEbEERKT_DpOT0_, symObjAddr: 0x2860, symBinAddr: 0x10000D4D8, symSize: 0x314 }
  - { offsetInCU: 0x26B38, offset: 0x5FA08, size: 0x8, addend: 0x0, symName: __ZNSt3__112__hash_tableINS_17__hash_value_typeIiiEENS_22__unordered_map_hasherIiS2_NS_4hashIiEENS_8equal_toIiEELb1EEENS_21__unordered_map_equalIiS2_S7_S5_Lb1EEENS_9allocatorIS2_EEE11__do_rehashILb1EEEvm, symObjAddr: 0x2B74, symBinAddr: 0x10000D7EC, symSize: 0x1AC }
  - { offsetInCU: 0x26F8A, offset: 0x5FE5A, size: 0x8, addend: 0x0, symName: __ZNSt3__112__hash_tableINS_17__hash_value_typeIiNS_6vectorIiNS_9allocatorIiEEEEEENS_22__unordered_map_hasherIiS6_NS_4hashIiEENS_8equal_toIiEELb1EEENS_21__unordered_map_equalIiS6_SB_S9_Lb1EEENS3_IS6_EEE14__erase_uniqueIiEEmRKT_, symObjAddr: 0x2D20, symBinAddr: 0x10000D998, symSize: 0x13C }
  - { offsetInCU: 0x2706C, offset: 0x5FF3C, size: 0x8, addend: 0x0, symName: __ZNSt3__112__hash_tableINS_17__hash_value_typeIiNS_6vectorIiNS_9allocatorIiEEEEEENS_22__unordered_map_hasherIiS6_NS_4hashIiEENS_8equal_toIiEELb1EEENS_21__unordered_map_equalIiS6_SB_S9_Lb1EEENS3_IS6_EEE6removeENS_21__hash_const_iteratorIPNS_11__hash_nodeIS6_PvEEEE, symObjAddr: 0x2E5C, symBinAddr: 0x10000DAD4, symSize: 0x134 }
  - { offsetInCU: 0x270E3, offset: 0x5FFB3, size: 0x8, addend: 0x0, symName: __ZNSt3__112__hash_tableINS_17__hash_value_typeIiNS_6vectorIiNS_9allocatorIiEEEEEENS_22__unordered_map_hasherIiS6_NS_4hashIiEENS_8equal_toIiEELb1EEENS_21__unordered_map_equalIiS6_SB_S9_Lb1EEENS3_IS6_EEE6removeENS_21__hash_const_iteratorIPNS_11__hash_nodeIS6_PvEEEE, symObjAddr: 0x2E5C, symBinAddr: 0x10000DAD4, symSize: 0x134 }
  - { offsetInCU: 0x270FF, offset: 0x5FFCF, size: 0x8, addend: 0x0, symName: __ZNSt3__112__hash_tableINS_17__hash_value_typeIiNS_6vectorIiNS_9allocatorIiEEEEEENS_22__unordered_map_hasherIiS6_NS_4hashIiEENS_8equal_toIiEELb1EEENS_21__unordered_map_equalIiS6_SB_S9_Lb1EEENS3_IS6_EEE6removeENS_21__hash_const_iteratorIPNS_11__hash_nodeIS6_PvEEEE, symObjAddr: 0x2E5C, symBinAddr: 0x10000DAD4, symSize: 0x134 }
  - { offsetInCU: 0x273C6, offset: 0x60296, size: 0x8, addend: 0x0, symName: __ZNSt3__117bad_function_callD1Ev, symObjAddr: 0x2FC4, symBinAddr: 0x10000DC3C, symSize: 0x4 }
  - { offsetInCU: 0x273E8, offset: 0x602B8, size: 0x8, addend: 0x0, symName: __ZNSt3__117bad_function_callD1Ev, symObjAddr: 0x2FC4, symBinAddr: 0x10000DC3C, symSize: 0x4 }
  - { offsetInCU: 0x2741C, offset: 0x602EC, size: 0x8, addend: 0x0, symName: __ZNSt3__117bad_function_callD0Ev, symObjAddr: 0x2FC8, symBinAddr: 0x10000DC40, symSize: 0x14 }
  - { offsetInCU: 0x274B9, offset: 0x60389, size: 0x8, addend: 0x0, symName: __ZNSt3__112__hash_tableINS_17__hash_value_typeIiiEENS_22__unordered_map_hasherIiS2_NS_4hashIiEENS_8equal_toIiEELb1EEENS_21__unordered_map_equalIiS2_S7_S5_Lb1EEENS_9allocatorIS2_EEE6removeENS_21__hash_const_iteratorIPNS_11__hash_nodeIS2_PvEEEE, symObjAddr: 0x30F0, symBinAddr: 0x10000DD68, symSize: 0x134 }
  - { offsetInCU: 0x27530, offset: 0x60400, size: 0x8, addend: 0x0, symName: __ZNSt3__112__hash_tableINS_17__hash_value_typeIiiEENS_22__unordered_map_hasherIiS2_NS_4hashIiEENS_8equal_toIiEELb1EEENS_21__unordered_map_equalIiS2_S7_S5_Lb1EEENS_9allocatorIS2_EEE6removeENS_21__hash_const_iteratorIPNS_11__hash_nodeIS2_PvEEEE, symObjAddr: 0x30F0, symBinAddr: 0x10000DD68, symSize: 0x134 }
  - { offsetInCU: 0x2754C, offset: 0x6041C, size: 0x8, addend: 0x0, symName: __ZNSt3__112__hash_tableINS_17__hash_value_typeIiiEENS_22__unordered_map_hasherIiS2_NS_4hashIiEENS_8equal_toIiEELb1EEENS_21__unordered_map_equalIiS2_S7_S5_Lb1EEENS_9allocatorIS2_EEE6removeENS_21__hash_const_iteratorIPNS_11__hash_nodeIS2_PvEEEE, symObjAddr: 0x30F0, symBinAddr: 0x10000DD68, symSize: 0x134 }
  - { offsetInCU: 0x27EEC, offset: 0x60DBC, size: 0x8, addend: 0x0, symName: __ZNSt3__110unique_ptrINS_5tupleIJNS0_INS_15__thread_structENS_14default_deleteIS2_EEEEM18ThreadPoolWithDepsFvvEPS6_EEENS3_ISA_EEED1B8ue170006Ev, symObjAddr: 0x3380, symBinAddr: 0x10000DFF8, symSize: 0x48 }
  - { offsetInCU: 0x28095, offset: 0x60F65, size: 0x8, addend: 0x0, symName: __ZNSt3__110unique_ptrINS_15__thread_structENS_14default_deleteIS1_EEED1B8ue170006Ev, symObjAddr: 0x33C8, symBinAddr: 0x10000E040, symSize: 0x34 }
  - { offsetInCU: 0x28754, offset: 0x61624, size: 0x8, addend: 0x0, symName: __ZN18ThreadPoolWithDepsD2Ev, symObjAddr: 0x3708, symBinAddr: 0x10000E36C, symSize: 0x1B8 }
  - { offsetInCU: 0x287F9, offset: 0x616C9, size: 0x8, addend: 0x0, symName: '__ZNSt3__110__function6__funcIZN18ThreadPoolWithDeps7enqueueIZN36TaskSystemParallelThreadPoolSleeping16runAsyncWithDepsEP9IRunnableiRKNS_6vectorIiNS_9allocatorIiEEEEE3$_0EEvOT_iEUlvE_NS8_ISG_EEFvvEED1Ev', symObjAddr: 0x38C0, symBinAddr: 0x10000E524, symSize: 0x4 }
  - { offsetInCU: 0x28825, offset: 0x616F5, size: 0x8, addend: 0x0, symName: '__ZNSt3__110__function6__funcIZN18ThreadPoolWithDeps7enqueueIZN36TaskSystemParallelThreadPoolSleeping16runAsyncWithDepsEP9IRunnableiRKNS_6vectorIiNS_9allocatorIiEEEEE3$_0EEvOT_iEUlvE_NS8_ISG_EEFvvEED0Ev', symObjAddr: 0x38C4, symBinAddr: 0x10000E528, symSize: 0x4 }
  - { offsetInCU: 0x28A03, offset: 0x618D3, size: 0x8, addend: 0x0, symName: '__ZNKSt3__110__function6__funcIZN18ThreadPoolWithDeps7enqueueIZN36TaskSystemParallelThreadPoolSleeping16runAsyncWithDepsEP9IRunnableiRKNS_6vectorIiNS_9allocatorIiEEEEE3$_0EEvOT_iEUlvE_NS8_ISG_EEFvvEE7__cloneEv', symObjAddr: 0x38C8, symBinAddr: 0x10000E52C, symSize: 0x40 }
  - { offsetInCU: 0x28D23, offset: 0x61BF3, size: 0x8, addend: 0x0, symName: '__ZNKSt3__110__function6__funcIZN18ThreadPoolWithDeps7enqueueIZN36TaskSystemParallelThreadPoolSleeping16runAsyncWithDepsEP9IRunnableiRKNS_6vectorIiNS_9allocatorIiEEEEE3$_0EEvOT_iEUlvE_NS8_ISG_EEFvvEE7__cloneEPNS0_6__baseISI_EE', symObjAddr: 0x3908, symBinAddr: 0x10000E56C, symSize: 0x20 }
  - { offsetInCU: 0x28D5B, offset: 0x61C2B, size: 0x8, addend: 0x0, symName: '__ZNKSt3__110__function6__funcIZN18ThreadPoolWithDeps7enqueueIZN36TaskSystemParallelThreadPoolSleeping16runAsyncWithDepsEP9IRunnableiRKNS_6vectorIiNS_9allocatorIiEEEEE3$_0EEvOT_iEUlvE_NS8_ISG_EEFvvEE7__cloneEPNS0_6__baseISI_EE', symObjAddr: 0x3908, symBinAddr: 0x10000E56C, symSize: 0x20 }
  - { offsetInCU: 0x28D80, offset: 0x61C50, size: 0x8, addend: 0x0, symName: '__ZNKSt3__110__function6__funcIZN18ThreadPoolWithDeps7enqueueIZN36TaskSystemParallelThreadPoolSleeping16runAsyncWithDepsEP9IRunnableiRKNS_6vectorIiNS_9allocatorIiEEEEE3$_0EEvOT_iEUlvE_NS8_ISG_EEFvvEE7__cloneEPNS0_6__baseISI_EE', symObjAddr: 0x3908, symBinAddr: 0x10000E56C, symSize: 0x20 }
  - { offsetInCU: 0x28E68, offset: 0x61D38, size: 0x8, addend: 0x0, symName: '__ZNSt3__110__function6__funcIZN18ThreadPoolWithDeps7enqueueIZN36TaskSystemParallelThreadPoolSleeping16runAsyncWithDepsEP9IRunnableiRKNS_6vectorIiNS_9allocatorIiEEEEE3$_0EEvOT_iEUlvE_NS8_ISG_EEFvvEE7destroyEv', symObjAddr: 0x3928, symBinAddr: 0x10000E58C, symSize: 0x4 }
  - { offsetInCU: 0x28EB9, offset: 0x61D89, size: 0x8, addend: 0x0, symName: '__ZNSt3__110__function6__funcIZN18ThreadPoolWithDeps7enqueueIZN36TaskSystemParallelThreadPoolSleeping16runAsyncWithDepsEP9IRunnableiRKNS_6vectorIiNS_9allocatorIiEEEEE3$_0EEvOT_iEUlvE_NS8_ISG_EEFvvEE18destroy_deallocateEv', symObjAddr: 0x392C, symBinAddr: 0x10000E590, symSize: 0x4 }
  - { offsetInCU: 0x28EEF, offset: 0x61DBF, size: 0x8, addend: 0x0, symName: '__ZNSt3__110__function6__funcIZN18ThreadPoolWithDeps7enqueueIZN36TaskSystemParallelThreadPoolSleeping16runAsyncWithDepsEP9IRunnableiRKNS_6vectorIiNS_9allocatorIiEEEEE3$_0EEvOT_iEUlvE_NS8_ISG_EEFvvEE18destroy_deallocateEv', symObjAddr: 0x392C, symBinAddr: 0x10000E590, symSize: 0x4 }
  - { offsetInCU: 0x28F10, offset: 0x61DE0, size: 0x8, addend: 0x0, symName: '__ZNSt3__110__function6__funcIZN18ThreadPoolWithDeps7enqueueIZN36TaskSystemParallelThreadPoolSleeping16runAsyncWithDepsEP9IRunnableiRKNS_6vectorIiNS_9allocatorIiEEEEE3$_0EEvOT_iEUlvE_NS8_ISG_EEFvvEE18destroy_deallocateEv', symObjAddr: 0x392C, symBinAddr: 0x10000E590, symSize: 0x4 }
  - { offsetInCU: 0x28F3C, offset: 0x61E0C, size: 0x8, addend: 0x0, symName: '__ZNSt3__110__function6__funcIZN18ThreadPoolWithDeps7enqueueIZN36TaskSystemParallelThreadPoolSleeping16runAsyncWithDepsEP9IRunnableiRKNS_6vectorIiNS_9allocatorIiEEEEE3$_0EEvOT_iEUlvE_NS8_ISG_EEFvvEE18destroy_deallocateEv', symObjAddr: 0x392C, symBinAddr: 0x10000E590, symSize: 0x4 }
  - { offsetInCU: 0x28F62, offset: 0x61E32, size: 0x8, addend: 0x0, symName: '__ZNSt3__110__function6__funcIZN18ThreadPoolWithDeps7enqueueIZN36TaskSystemParallelThreadPoolSleeping16runAsyncWithDepsEP9IRunnableiRKNS_6vectorIiNS_9allocatorIiEEEEE3$_0EEvOT_iEUlvE_NS8_ISG_EEFvvEE18destroy_deallocateEv', symObjAddr: 0x392C, symBinAddr: 0x10000E590, symSize: 0x4 }
  - { offsetInCU: 0x29006, offset: 0x61ED6, size: 0x8, addend: 0x0, symName: '__ZNSt3__110__function6__funcIZN18ThreadPoolWithDeps7enqueueIZN36TaskSystemParallelThreadPoolSleeping16runAsyncWithDepsEP9IRunnableiRKNS_6vectorIiNS_9allocatorIiEEEEE3$_0EEvOT_iEUlvE_NS8_ISG_EEFvvEEclEv', symObjAddr: 0x3930, symBinAddr: 0x10000E594, symSize: 0x50 }
  - { offsetInCU: 0x2914B, offset: 0x6201B, size: 0x8, addend: 0x0, symName: '__ZNKSt3__110__function6__funcIZN18ThreadPoolWithDeps7enqueueIZN36TaskSystemParallelThreadPoolSleeping16runAsyncWithDepsEP9IRunnableiRKNS_6vectorIiNS_9allocatorIiEEEEE3$_0EEvOT_iEUlvE_NS8_ISG_EEFvvEE6targetERKSt9type_info', symObjAddr: 0x3980, symBinAddr: 0x10000E5E4, symSize: 0x60 }
  - { offsetInCU: 0x291D0, offset: 0x620A0, size: 0x8, addend: 0x0, symName: '__ZNKSt3__110__function6__funcIZN18ThreadPoolWithDeps7enqueueIZN36TaskSystemParallelThreadPoolSleeping16runAsyncWithDepsEP9IRunnableiRKNS_6vectorIiNS_9allocatorIiEEEEE3$_0EEvOT_iEUlvE_NS8_ISG_EEFvvEE11target_typeEv', symObjAddr: 0x39E0, symBinAddr: 0x10000E644, symSize: 0xC }
  - { offsetInCU: 0x291F5, offset: 0x620C5, size: 0x8, addend: 0x0, symName: '__ZNSt3__110__function6__funcIZN18ThreadPoolWithDeps7enqueueIZN36TaskSystemParallelThreadPoolSleeping16runAsyncWithDepsEP9IRunnableiRKNS_6vectorIiNS_9allocatorIiEEEEE3$_0EEvOT_iEUlvE0_NS8_ISG_EEFvvEED1Ev', symObjAddr: 0x39EC, symBinAddr: 0x10000E650, symSize: 0x4 }
  - { offsetInCU: 0x29221, offset: 0x620F1, size: 0x8, addend: 0x0, symName: '__ZNSt3__110__function6__funcIZN18ThreadPoolWithDeps7enqueueIZN36TaskSystemParallelThreadPoolSleeping16runAsyncWithDepsEP9IRunnableiRKNS_6vectorIiNS_9allocatorIiEEEEE3$_0EEvOT_iEUlvE0_NS8_ISG_EEFvvEED0Ev', symObjAddr: 0x39F0, symBinAddr: 0x10000E654, symSize: 0x4 }
  - { offsetInCU: 0x293FF, offset: 0x622CF, size: 0x8, addend: 0x0, symName: '__ZNKSt3__110__function6__funcIZN18ThreadPoolWithDeps7enqueueIZN36TaskSystemParallelThreadPoolSleeping16runAsyncWithDepsEP9IRunnableiRKNS_6vectorIiNS_9allocatorIiEEEEE3$_0EEvOT_iEUlvE0_NS8_ISG_EEFvvEE7__cloneEv', symObjAddr: 0x39F4, symBinAddr: 0x10000E658, symSize: 0x40 }
  - { offsetInCU: 0x2971F, offset: 0x625EF, size: 0x8, addend: 0x0, symName: '__ZNKSt3__110__function6__funcIZN18ThreadPoolWithDeps7enqueueIZN36TaskSystemParallelThreadPoolSleeping16runAsyncWithDepsEP9IRunnableiRKNS_6vectorIiNS_9allocatorIiEEEEE3$_0EEvOT_iEUlvE0_NS8_ISG_EEFvvEE7__cloneEPNS0_6__baseISI_EE', symObjAddr: 0x3A34, symBinAddr: 0x10000E698, symSize: 0x20 }
  - { offsetInCU: 0x29757, offset: 0x62627, size: 0x8, addend: 0x0, symName: '__ZNKSt3__110__function6__funcIZN18ThreadPoolWithDeps7enqueueIZN36TaskSystemParallelThreadPoolSleeping16runAsyncWithDepsEP9IRunnableiRKNS_6vectorIiNS_9allocatorIiEEEEE3$_0EEvOT_iEUlvE0_NS8_ISG_EEFvvEE7__cloneEPNS0_6__baseISI_EE', symObjAddr: 0x3A34, symBinAddr: 0x10000E698, symSize: 0x20 }
  - { offsetInCU: 0x2977C, offset: 0x6264C, size: 0x8, addend: 0x0, symName: '__ZNKSt3__110__function6__funcIZN18ThreadPoolWithDeps7enqueueIZN36TaskSystemParallelThreadPoolSleeping16runAsyncWithDepsEP9IRunnableiRKNS_6vectorIiNS_9allocatorIiEEEEE3$_0EEvOT_iEUlvE0_NS8_ISG_EEFvvEE7__cloneEPNS0_6__baseISI_EE', symObjAddr: 0x3A34, symBinAddr: 0x10000E698, symSize: 0x20 }
  - { offsetInCU: 0x29864, offset: 0x62734, size: 0x8, addend: 0x0, symName: '__ZNSt3__110__function6__funcIZN18ThreadPoolWithDeps7enqueueIZN36TaskSystemParallelThreadPoolSleeping16runAsyncWithDepsEP9IRunnableiRKNS_6vectorIiNS_9allocatorIiEEEEE3$_0EEvOT_iEUlvE0_NS8_ISG_EEFvvEE7destroyEv', symObjAddr: 0x3A54, symBinAddr: 0x10000E6B8, symSize: 0x4 }
  - { offsetInCU: 0x298B5, offset: 0x62785, size: 0x8, addend: 0x0, symName: '__ZNSt3__110__function6__funcIZN18ThreadPoolWithDeps7enqueueIZN36TaskSystemParallelThreadPoolSleeping16runAsyncWithDepsEP9IRunnableiRKNS_6vectorIiNS_9allocatorIiEEEEE3$_0EEvOT_iEUlvE0_NS8_ISG_EEFvvEE18destroy_deallocateEv', symObjAddr: 0x3A58, symBinAddr: 0x10000E6BC, symSize: 0x4 }
  - { offsetInCU: 0x298EB, offset: 0x627BB, size: 0x8, addend: 0x0, symName: '__ZNSt3__110__function6__funcIZN18ThreadPoolWithDeps7enqueueIZN36TaskSystemParallelThreadPoolSleeping16runAsyncWithDepsEP9IRunnableiRKNS_6vectorIiNS_9allocatorIiEEEEE3$_0EEvOT_iEUlvE0_NS8_ISG_EEFvvEE18destroy_deallocateEv', symObjAddr: 0x3A58, symBinAddr: 0x10000E6BC, symSize: 0x4 }
  - { offsetInCU: 0x2990C, offset: 0x627DC, size: 0x8, addend: 0x0, symName: '__ZNSt3__110__function6__funcIZN18ThreadPoolWithDeps7enqueueIZN36TaskSystemParallelThreadPoolSleeping16runAsyncWithDepsEP9IRunnableiRKNS_6vectorIiNS_9allocatorIiEEEEE3$_0EEvOT_iEUlvE0_NS8_ISG_EEFvvEE18destroy_deallocateEv', symObjAddr: 0x3A58, symBinAddr: 0x10000E6BC, symSize: 0x4 }
  - { offsetInCU: 0x29938, offset: 0x62808, size: 0x8, addend: 0x0, symName: '__ZNSt3__110__function6__funcIZN18ThreadPoolWithDeps7enqueueIZN36TaskSystemParallelThreadPoolSleeping16runAsyncWithDepsEP9IRunnableiRKNS_6vectorIiNS_9allocatorIiEEEEE3$_0EEvOT_iEUlvE0_NS8_ISG_EEFvvEE18destroy_deallocateEv', symObjAddr: 0x3A58, symBinAddr: 0x10000E6BC, symSize: 0x4 }
  - { offsetInCU: 0x2995E, offset: 0x6282E, size: 0x8, addend: 0x0, symName: '__ZNSt3__110__function6__funcIZN18ThreadPoolWithDeps7enqueueIZN36TaskSystemParallelThreadPoolSleeping16runAsyncWithDepsEP9IRunnableiRKNS_6vectorIiNS_9allocatorIiEEEEE3$_0EEvOT_iEUlvE0_NS8_ISG_EEFvvEE18destroy_deallocateEv', symObjAddr: 0x3A58, symBinAddr: 0x10000E6BC, symSize: 0x4 }
  - { offsetInCU: 0x299D6, offset: 0x628A6, size: 0x8, addend: 0x0, symName: '__ZNSt3__110__function6__funcIZN18ThreadPoolWithDeps7enqueueIZN36TaskSystemParallelThreadPoolSleeping16runAsyncWithDepsEP9IRunnableiRKNS_6vectorIiNS_9allocatorIiEEEEE3$_0EEvOT_iEUlvE0_NS8_ISG_EEFvvEEclEv', symObjAddr: 0x3A5C, symBinAddr: 0x10000E6C0, symSize: 0x50 }
  - { offsetInCU: 0x29AC1, offset: 0x62991, size: 0x8, addend: 0x0, symName: '__ZNKSt3__110__function6__funcIZN18ThreadPoolWithDeps7enqueueIZN36TaskSystemParallelThreadPoolSleeping16runAsyncWithDepsEP9IRunnableiRKNS_6vectorIiNS_9allocatorIiEEEEE3$_0EEvOT_iEUlvE0_NS8_ISG_EEFvvEE6targetERKSt9type_info', symObjAddr: 0x3AAC, symBinAddr: 0x10000E710, symSize: 0x60 }
  - { offsetInCU: 0x29B46, offset: 0x62A16, size: 0x8, addend: 0x0, symName: '__ZNKSt3__110__function6__funcIZN18ThreadPoolWithDeps7enqueueIZN36TaskSystemParallelThreadPoolSleeping16runAsyncWithDepsEP9IRunnableiRKNS_6vectorIiNS_9allocatorIiEEEEE3$_0EEvOT_iEUlvE0_NS8_ISG_EEFvvEE11target_typeEv', symObjAddr: 0x3B0C, symBinAddr: 0x10000E770, symSize: 0xC }
...
